ARM GAS  /tmp/cc2tQgYP.s 			page 1


   1              		.cpu cortex-m3
   2              		.arch armv7-m
   3              		.fpu softvfp
   4              		.eabi_attribute 20, 1
   5              		.eabi_attribute 21, 1
   6              		.eabi_attribute 23, 3
   7              		.eabi_attribute 24, 1
   8              		.eabi_attribute 25, 1
   9              		.eabi_attribute 26, 1
  10              		.eabi_attribute 30, 1
  11              		.eabi_attribute 34, 1
  12              		.eabi_attribute 18, 4
  13              		.file	"stm32f1xx_hal_dma.c"
  14              		.text
  15              	.Ltext0:
  16              		.cfi_sections	.debug_frame
  17              		.file 1 "Drivers/STM32F1xx_HAL_Driver/Src/stm32f1xx_hal_dma.c"
  18              		.section	.text.DMA_SetConfig,"ax",%progbits
  19              		.align	1
  20              		.syntax unified
  21              		.thumb
  22              		.thumb_func
  24              	DMA_SetConfig:
  25              	.LVL0:
  26              	.LFB77:
   1:Drivers/STM32F1xx_HAL_Driver/Src/stm32f1xx_hal_dma.c **** /**
   2:Drivers/STM32F1xx_HAL_Driver/Src/stm32f1xx_hal_dma.c ****   ******************************************************************************
   3:Drivers/STM32F1xx_HAL_Driver/Src/stm32f1xx_hal_dma.c ****   * @file    stm32f1xx_hal_dma.c
   4:Drivers/STM32F1xx_HAL_Driver/Src/stm32f1xx_hal_dma.c ****   * @author  MCD Application Team
   5:Drivers/STM32F1xx_HAL_Driver/Src/stm32f1xx_hal_dma.c ****   * @brief   DMA HAL module driver.
   6:Drivers/STM32F1xx_HAL_Driver/Src/stm32f1xx_hal_dma.c ****   *         This file provides firmware functions to manage the following
   7:Drivers/STM32F1xx_HAL_Driver/Src/stm32f1xx_hal_dma.c ****   *         functionalities of the Direct Memory Access (DMA) peripheral:
   8:Drivers/STM32F1xx_HAL_Driver/Src/stm32f1xx_hal_dma.c ****   *           + Initialization and de-initialization functions
   9:Drivers/STM32F1xx_HAL_Driver/Src/stm32f1xx_hal_dma.c ****   *           + IO operation functions
  10:Drivers/STM32F1xx_HAL_Driver/Src/stm32f1xx_hal_dma.c ****   *           + Peripheral State and errors functions
  11:Drivers/STM32F1xx_HAL_Driver/Src/stm32f1xx_hal_dma.c ****   @verbatim
  12:Drivers/STM32F1xx_HAL_Driver/Src/stm32f1xx_hal_dma.c ****   ==============================================================================
  13:Drivers/STM32F1xx_HAL_Driver/Src/stm32f1xx_hal_dma.c ****                         ##### How to use this driver #####
  14:Drivers/STM32F1xx_HAL_Driver/Src/stm32f1xx_hal_dma.c ****   ==============================================================================
  15:Drivers/STM32F1xx_HAL_Driver/Src/stm32f1xx_hal_dma.c ****   [..]
  16:Drivers/STM32F1xx_HAL_Driver/Src/stm32f1xx_hal_dma.c ****    (#) Enable and configure the peripheral to be connected to the DMA Channel
  17:Drivers/STM32F1xx_HAL_Driver/Src/stm32f1xx_hal_dma.c ****        (except for internal SRAM / FLASH memories: no initialization is 
  18:Drivers/STM32F1xx_HAL_Driver/Src/stm32f1xx_hal_dma.c ****        necessary). Please refer to the Reference manual for connection between peripherals
  19:Drivers/STM32F1xx_HAL_Driver/Src/stm32f1xx_hal_dma.c ****        and DMA requests.
  20:Drivers/STM32F1xx_HAL_Driver/Src/stm32f1xx_hal_dma.c **** 
  21:Drivers/STM32F1xx_HAL_Driver/Src/stm32f1xx_hal_dma.c ****    (#) For a given Channel, program the required configuration through the following parameters:
  22:Drivers/STM32F1xx_HAL_Driver/Src/stm32f1xx_hal_dma.c ****        Channel request, Transfer Direction, Source and Destination data formats,
  23:Drivers/STM32F1xx_HAL_Driver/Src/stm32f1xx_hal_dma.c ****        Circular or Normal mode, Channel Priority level, Source and Destination Increment mode
  24:Drivers/STM32F1xx_HAL_Driver/Src/stm32f1xx_hal_dma.c ****        using HAL_DMA_Init() function.
  25:Drivers/STM32F1xx_HAL_Driver/Src/stm32f1xx_hal_dma.c **** 
  26:Drivers/STM32F1xx_HAL_Driver/Src/stm32f1xx_hal_dma.c ****    (#) Use HAL_DMA_GetState() function to return the DMA state and HAL_DMA_GetError() in case of er
  27:Drivers/STM32F1xx_HAL_Driver/Src/stm32f1xx_hal_dma.c ****        detection.
  28:Drivers/STM32F1xx_HAL_Driver/Src/stm32f1xx_hal_dma.c ****                     
  29:Drivers/STM32F1xx_HAL_Driver/Src/stm32f1xx_hal_dma.c ****    (#) Use HAL_DMA_Abort() function to abort the current transfer
  30:Drivers/STM32F1xx_HAL_Driver/Src/stm32f1xx_hal_dma.c ****                    
  31:Drivers/STM32F1xx_HAL_Driver/Src/stm32f1xx_hal_dma.c ****      -@-   In Memory-to-Memory transfer mode, Circular mode is not allowed.
  32:Drivers/STM32F1xx_HAL_Driver/Src/stm32f1xx_hal_dma.c ****      *** Polling mode IO operation ***
ARM GAS  /tmp/cc2tQgYP.s 			page 2


  33:Drivers/STM32F1xx_HAL_Driver/Src/stm32f1xx_hal_dma.c ****      =================================
  34:Drivers/STM32F1xx_HAL_Driver/Src/stm32f1xx_hal_dma.c ****     [..]
  35:Drivers/STM32F1xx_HAL_Driver/Src/stm32f1xx_hal_dma.c ****           (+) Use HAL_DMA_Start() to start DMA transfer after the configuration of Source
  36:Drivers/STM32F1xx_HAL_Driver/Src/stm32f1xx_hal_dma.c ****               address and destination address and the Length of data to be transferred
  37:Drivers/STM32F1xx_HAL_Driver/Src/stm32f1xx_hal_dma.c ****           (+) Use HAL_DMA_PollForTransfer() to poll for the end of current transfer, in this
  38:Drivers/STM32F1xx_HAL_Driver/Src/stm32f1xx_hal_dma.c ****               case a fixed Timeout can be configured by User depending from his application.
  39:Drivers/STM32F1xx_HAL_Driver/Src/stm32f1xx_hal_dma.c **** 
  40:Drivers/STM32F1xx_HAL_Driver/Src/stm32f1xx_hal_dma.c ****      *** Interrupt mode IO operation ***
  41:Drivers/STM32F1xx_HAL_Driver/Src/stm32f1xx_hal_dma.c ****      ===================================
  42:Drivers/STM32F1xx_HAL_Driver/Src/stm32f1xx_hal_dma.c ****     [..]
  43:Drivers/STM32F1xx_HAL_Driver/Src/stm32f1xx_hal_dma.c ****           (+) Configure the DMA interrupt priority using HAL_NVIC_SetPriority()
  44:Drivers/STM32F1xx_HAL_Driver/Src/stm32f1xx_hal_dma.c ****           (+) Enable the DMA IRQ handler using HAL_NVIC_EnableIRQ()
  45:Drivers/STM32F1xx_HAL_Driver/Src/stm32f1xx_hal_dma.c ****           (+) Use HAL_DMA_Start_IT() to start DMA transfer after the configuration of
  46:Drivers/STM32F1xx_HAL_Driver/Src/stm32f1xx_hal_dma.c ****               Source address and destination address and the Length of data to be transferred.
  47:Drivers/STM32F1xx_HAL_Driver/Src/stm32f1xx_hal_dma.c ****               In this case the DMA interrupt is configured
  48:Drivers/STM32F1xx_HAL_Driver/Src/stm32f1xx_hal_dma.c ****           (+) Use HAL_DMA_IRQHandler() called under DMA_IRQHandler() Interrupt subroutine
  49:Drivers/STM32F1xx_HAL_Driver/Src/stm32f1xx_hal_dma.c ****           (+) At the end of data transfer HAL_DMA_IRQHandler() function is executed and user can
  50:Drivers/STM32F1xx_HAL_Driver/Src/stm32f1xx_hal_dma.c ****               add his own function by customization of function pointer XferCpltCallback and
  51:Drivers/STM32F1xx_HAL_Driver/Src/stm32f1xx_hal_dma.c ****               XferErrorCallback (i.e. a member of DMA handle structure).
  52:Drivers/STM32F1xx_HAL_Driver/Src/stm32f1xx_hal_dma.c **** 
  53:Drivers/STM32F1xx_HAL_Driver/Src/stm32f1xx_hal_dma.c ****      *** DMA HAL driver macros list ***
  54:Drivers/STM32F1xx_HAL_Driver/Src/stm32f1xx_hal_dma.c ****      ============================================= 
  55:Drivers/STM32F1xx_HAL_Driver/Src/stm32f1xx_hal_dma.c ****       [..]
  56:Drivers/STM32F1xx_HAL_Driver/Src/stm32f1xx_hal_dma.c ****        Below the list of most used macros in DMA HAL driver.
  57:Drivers/STM32F1xx_HAL_Driver/Src/stm32f1xx_hal_dma.c **** 
  58:Drivers/STM32F1xx_HAL_Driver/Src/stm32f1xx_hal_dma.c ****        (+) __HAL_DMA_ENABLE: Enable the specified DMA Channel.
  59:Drivers/STM32F1xx_HAL_Driver/Src/stm32f1xx_hal_dma.c ****        (+) __HAL_DMA_DISABLE: Disable the specified DMA Channel.
  60:Drivers/STM32F1xx_HAL_Driver/Src/stm32f1xx_hal_dma.c ****        (+) __HAL_DMA_GET_FLAG: Get the DMA Channel pending flags.
  61:Drivers/STM32F1xx_HAL_Driver/Src/stm32f1xx_hal_dma.c ****        (+) __HAL_DMA_CLEAR_FLAG: Clear the DMA Channel pending flags.
  62:Drivers/STM32F1xx_HAL_Driver/Src/stm32f1xx_hal_dma.c ****        (+) __HAL_DMA_ENABLE_IT: Enable the specified DMA Channel interrupts.
  63:Drivers/STM32F1xx_HAL_Driver/Src/stm32f1xx_hal_dma.c ****        (+) __HAL_DMA_DISABLE_IT: Disable the specified DMA Channel interrupts.
  64:Drivers/STM32F1xx_HAL_Driver/Src/stm32f1xx_hal_dma.c ****        (+) __HAL_DMA_GET_IT_SOURCE: Check whether the specified DMA Channel interrupt has occurred 
  65:Drivers/STM32F1xx_HAL_Driver/Src/stm32f1xx_hal_dma.c **** 
  66:Drivers/STM32F1xx_HAL_Driver/Src/stm32f1xx_hal_dma.c ****      [..] 
  67:Drivers/STM32F1xx_HAL_Driver/Src/stm32f1xx_hal_dma.c ****       (@) You can refer to the DMA HAL driver header file for more useful macros  
  68:Drivers/STM32F1xx_HAL_Driver/Src/stm32f1xx_hal_dma.c **** 
  69:Drivers/STM32F1xx_HAL_Driver/Src/stm32f1xx_hal_dma.c ****   @endverbatim
  70:Drivers/STM32F1xx_HAL_Driver/Src/stm32f1xx_hal_dma.c ****   ******************************************************************************
  71:Drivers/STM32F1xx_HAL_Driver/Src/stm32f1xx_hal_dma.c ****   * @attention
  72:Drivers/STM32F1xx_HAL_Driver/Src/stm32f1xx_hal_dma.c ****   *
  73:Drivers/STM32F1xx_HAL_Driver/Src/stm32f1xx_hal_dma.c ****   * <h2><center>&copy; Copyright (c) 2016 STMicroelectronics.
  74:Drivers/STM32F1xx_HAL_Driver/Src/stm32f1xx_hal_dma.c ****   * All rights reserved.</center></h2>
  75:Drivers/STM32F1xx_HAL_Driver/Src/stm32f1xx_hal_dma.c ****   *
  76:Drivers/STM32F1xx_HAL_Driver/Src/stm32f1xx_hal_dma.c ****   * This software component is licensed by ST under BSD 3-Clause license,
  77:Drivers/STM32F1xx_HAL_Driver/Src/stm32f1xx_hal_dma.c ****   * the "License"; You may not use this file except in compliance with the
  78:Drivers/STM32F1xx_HAL_Driver/Src/stm32f1xx_hal_dma.c ****   * License. You may obtain a copy of the License at:
  79:Drivers/STM32F1xx_HAL_Driver/Src/stm32f1xx_hal_dma.c ****   *                        opensource.org/licenses/BSD-3-Clause
  80:Drivers/STM32F1xx_HAL_Driver/Src/stm32f1xx_hal_dma.c ****   *
  81:Drivers/STM32F1xx_HAL_Driver/Src/stm32f1xx_hal_dma.c ****   ******************************************************************************
  82:Drivers/STM32F1xx_HAL_Driver/Src/stm32f1xx_hal_dma.c ****   */
  83:Drivers/STM32F1xx_HAL_Driver/Src/stm32f1xx_hal_dma.c **** 
  84:Drivers/STM32F1xx_HAL_Driver/Src/stm32f1xx_hal_dma.c **** /* Includes ------------------------------------------------------------------*/
  85:Drivers/STM32F1xx_HAL_Driver/Src/stm32f1xx_hal_dma.c **** #include "stm32f1xx_hal.h"
  86:Drivers/STM32F1xx_HAL_Driver/Src/stm32f1xx_hal_dma.c **** 
  87:Drivers/STM32F1xx_HAL_Driver/Src/stm32f1xx_hal_dma.c **** /** @addtogroup STM32F1xx_HAL_Driver
  88:Drivers/STM32F1xx_HAL_Driver/Src/stm32f1xx_hal_dma.c ****   * @{
  89:Drivers/STM32F1xx_HAL_Driver/Src/stm32f1xx_hal_dma.c ****   */
ARM GAS  /tmp/cc2tQgYP.s 			page 3


  90:Drivers/STM32F1xx_HAL_Driver/Src/stm32f1xx_hal_dma.c **** 
  91:Drivers/STM32F1xx_HAL_Driver/Src/stm32f1xx_hal_dma.c **** /** @defgroup DMA DMA
  92:Drivers/STM32F1xx_HAL_Driver/Src/stm32f1xx_hal_dma.c ****   * @brief DMA HAL module driver
  93:Drivers/STM32F1xx_HAL_Driver/Src/stm32f1xx_hal_dma.c ****   * @{
  94:Drivers/STM32F1xx_HAL_Driver/Src/stm32f1xx_hal_dma.c ****   */
  95:Drivers/STM32F1xx_HAL_Driver/Src/stm32f1xx_hal_dma.c **** 
  96:Drivers/STM32F1xx_HAL_Driver/Src/stm32f1xx_hal_dma.c **** #ifdef HAL_DMA_MODULE_ENABLED
  97:Drivers/STM32F1xx_HAL_Driver/Src/stm32f1xx_hal_dma.c **** 
  98:Drivers/STM32F1xx_HAL_Driver/Src/stm32f1xx_hal_dma.c **** /* Private typedef -----------------------------------------------------------*/
  99:Drivers/STM32F1xx_HAL_Driver/Src/stm32f1xx_hal_dma.c **** /* Private define ------------------------------------------------------------*/
 100:Drivers/STM32F1xx_HAL_Driver/Src/stm32f1xx_hal_dma.c **** /* Private macro -------------------------------------------------------------*/
 101:Drivers/STM32F1xx_HAL_Driver/Src/stm32f1xx_hal_dma.c **** /* Private variables ---------------------------------------------------------*/
 102:Drivers/STM32F1xx_HAL_Driver/Src/stm32f1xx_hal_dma.c **** /* Private function prototypes -----------------------------------------------*/
 103:Drivers/STM32F1xx_HAL_Driver/Src/stm32f1xx_hal_dma.c **** /** @defgroup DMA_Private_Functions DMA Private Functions
 104:Drivers/STM32F1xx_HAL_Driver/Src/stm32f1xx_hal_dma.c ****   * @{
 105:Drivers/STM32F1xx_HAL_Driver/Src/stm32f1xx_hal_dma.c ****   */
 106:Drivers/STM32F1xx_HAL_Driver/Src/stm32f1xx_hal_dma.c **** static void DMA_SetConfig(DMA_HandleTypeDef *hdma, uint32_t SrcAddress, uint32_t DstAddress, uint32
 107:Drivers/STM32F1xx_HAL_Driver/Src/stm32f1xx_hal_dma.c **** /**
 108:Drivers/STM32F1xx_HAL_Driver/Src/stm32f1xx_hal_dma.c ****   * @}
 109:Drivers/STM32F1xx_HAL_Driver/Src/stm32f1xx_hal_dma.c ****   */
 110:Drivers/STM32F1xx_HAL_Driver/Src/stm32f1xx_hal_dma.c **** 
 111:Drivers/STM32F1xx_HAL_Driver/Src/stm32f1xx_hal_dma.c **** /* Exported functions ---------------------------------------------------------*/
 112:Drivers/STM32F1xx_HAL_Driver/Src/stm32f1xx_hal_dma.c **** 
 113:Drivers/STM32F1xx_HAL_Driver/Src/stm32f1xx_hal_dma.c **** /** @defgroup DMA_Exported_Functions DMA Exported Functions
 114:Drivers/STM32F1xx_HAL_Driver/Src/stm32f1xx_hal_dma.c ****   * @{
 115:Drivers/STM32F1xx_HAL_Driver/Src/stm32f1xx_hal_dma.c ****   */
 116:Drivers/STM32F1xx_HAL_Driver/Src/stm32f1xx_hal_dma.c **** 
 117:Drivers/STM32F1xx_HAL_Driver/Src/stm32f1xx_hal_dma.c **** /** @defgroup DMA_Exported_Functions_Group1 Initialization and de-initialization functions
 118:Drivers/STM32F1xx_HAL_Driver/Src/stm32f1xx_hal_dma.c ****   *  @brief   Initialization and de-initialization functions 
 119:Drivers/STM32F1xx_HAL_Driver/Src/stm32f1xx_hal_dma.c ****   *
 120:Drivers/STM32F1xx_HAL_Driver/Src/stm32f1xx_hal_dma.c **** @verbatim
 121:Drivers/STM32F1xx_HAL_Driver/Src/stm32f1xx_hal_dma.c ****  ===============================================================================
 122:Drivers/STM32F1xx_HAL_Driver/Src/stm32f1xx_hal_dma.c ****              ##### Initialization and de-initialization functions  #####
 123:Drivers/STM32F1xx_HAL_Driver/Src/stm32f1xx_hal_dma.c ****  ===============================================================================
 124:Drivers/STM32F1xx_HAL_Driver/Src/stm32f1xx_hal_dma.c ****     [..]
 125:Drivers/STM32F1xx_HAL_Driver/Src/stm32f1xx_hal_dma.c ****     This section provides functions allowing to initialize the DMA Channel source
 126:Drivers/STM32F1xx_HAL_Driver/Src/stm32f1xx_hal_dma.c ****     and destination addresses, incrementation and data sizes, transfer direction, 
 127:Drivers/STM32F1xx_HAL_Driver/Src/stm32f1xx_hal_dma.c ****     circular/normal mode selection, memory-to-memory mode selection and Channel priority value.
 128:Drivers/STM32F1xx_HAL_Driver/Src/stm32f1xx_hal_dma.c ****     [..]
 129:Drivers/STM32F1xx_HAL_Driver/Src/stm32f1xx_hal_dma.c ****     The HAL_DMA_Init() function follows the DMA configuration procedures as described in
 130:Drivers/STM32F1xx_HAL_Driver/Src/stm32f1xx_hal_dma.c ****     reference manual.  
 131:Drivers/STM32F1xx_HAL_Driver/Src/stm32f1xx_hal_dma.c **** 
 132:Drivers/STM32F1xx_HAL_Driver/Src/stm32f1xx_hal_dma.c **** @endverbatim
 133:Drivers/STM32F1xx_HAL_Driver/Src/stm32f1xx_hal_dma.c ****   * @{
 134:Drivers/STM32F1xx_HAL_Driver/Src/stm32f1xx_hal_dma.c ****   */
 135:Drivers/STM32F1xx_HAL_Driver/Src/stm32f1xx_hal_dma.c **** 
 136:Drivers/STM32F1xx_HAL_Driver/Src/stm32f1xx_hal_dma.c **** /**
 137:Drivers/STM32F1xx_HAL_Driver/Src/stm32f1xx_hal_dma.c ****   * @brief  Initialize the DMA according to the specified
 138:Drivers/STM32F1xx_HAL_Driver/Src/stm32f1xx_hal_dma.c ****   *         parameters in the DMA_InitTypeDef and initialize the associated handle.
 139:Drivers/STM32F1xx_HAL_Driver/Src/stm32f1xx_hal_dma.c ****   * @param  hdma: Pointer to a DMA_HandleTypeDef structure that contains
 140:Drivers/STM32F1xx_HAL_Driver/Src/stm32f1xx_hal_dma.c ****   *               the configuration information for the specified DMA Channel.
 141:Drivers/STM32F1xx_HAL_Driver/Src/stm32f1xx_hal_dma.c ****   * @retval HAL status
 142:Drivers/STM32F1xx_HAL_Driver/Src/stm32f1xx_hal_dma.c ****   */
 143:Drivers/STM32F1xx_HAL_Driver/Src/stm32f1xx_hal_dma.c **** HAL_StatusTypeDef HAL_DMA_Init(DMA_HandleTypeDef *hdma)
 144:Drivers/STM32F1xx_HAL_Driver/Src/stm32f1xx_hal_dma.c **** {
 145:Drivers/STM32F1xx_HAL_Driver/Src/stm32f1xx_hal_dma.c ****   uint32_t tmp = 0U;
 146:Drivers/STM32F1xx_HAL_Driver/Src/stm32f1xx_hal_dma.c **** 
ARM GAS  /tmp/cc2tQgYP.s 			page 4


 147:Drivers/STM32F1xx_HAL_Driver/Src/stm32f1xx_hal_dma.c ****   /* Check the DMA handle allocation */
 148:Drivers/STM32F1xx_HAL_Driver/Src/stm32f1xx_hal_dma.c ****   if(hdma == NULL)
 149:Drivers/STM32F1xx_HAL_Driver/Src/stm32f1xx_hal_dma.c ****   {
 150:Drivers/STM32F1xx_HAL_Driver/Src/stm32f1xx_hal_dma.c ****     return HAL_ERROR;
 151:Drivers/STM32F1xx_HAL_Driver/Src/stm32f1xx_hal_dma.c ****   }
 152:Drivers/STM32F1xx_HAL_Driver/Src/stm32f1xx_hal_dma.c **** 
 153:Drivers/STM32F1xx_HAL_Driver/Src/stm32f1xx_hal_dma.c ****   /* Check the parameters */
 154:Drivers/STM32F1xx_HAL_Driver/Src/stm32f1xx_hal_dma.c ****   assert_param(IS_DMA_ALL_INSTANCE(hdma->Instance));
 155:Drivers/STM32F1xx_HAL_Driver/Src/stm32f1xx_hal_dma.c ****   assert_param(IS_DMA_DIRECTION(hdma->Init.Direction));
 156:Drivers/STM32F1xx_HAL_Driver/Src/stm32f1xx_hal_dma.c ****   assert_param(IS_DMA_PERIPHERAL_INC_STATE(hdma->Init.PeriphInc));
 157:Drivers/STM32F1xx_HAL_Driver/Src/stm32f1xx_hal_dma.c ****   assert_param(IS_DMA_MEMORY_INC_STATE(hdma->Init.MemInc));
 158:Drivers/STM32F1xx_HAL_Driver/Src/stm32f1xx_hal_dma.c ****   assert_param(IS_DMA_PERIPHERAL_DATA_SIZE(hdma->Init.PeriphDataAlignment));
 159:Drivers/STM32F1xx_HAL_Driver/Src/stm32f1xx_hal_dma.c ****   assert_param(IS_DMA_MEMORY_DATA_SIZE(hdma->Init.MemDataAlignment));
 160:Drivers/STM32F1xx_HAL_Driver/Src/stm32f1xx_hal_dma.c ****   assert_param(IS_DMA_MODE(hdma->Init.Mode));
 161:Drivers/STM32F1xx_HAL_Driver/Src/stm32f1xx_hal_dma.c ****   assert_param(IS_DMA_PRIORITY(hdma->Init.Priority));
 162:Drivers/STM32F1xx_HAL_Driver/Src/stm32f1xx_hal_dma.c **** 
 163:Drivers/STM32F1xx_HAL_Driver/Src/stm32f1xx_hal_dma.c **** #if defined (DMA2)
 164:Drivers/STM32F1xx_HAL_Driver/Src/stm32f1xx_hal_dma.c ****   /* calculation of the channel index */
 165:Drivers/STM32F1xx_HAL_Driver/Src/stm32f1xx_hal_dma.c ****   if ((uint32_t)(hdma->Instance) < (uint32_t)(DMA2_Channel1))
 166:Drivers/STM32F1xx_HAL_Driver/Src/stm32f1xx_hal_dma.c ****   {
 167:Drivers/STM32F1xx_HAL_Driver/Src/stm32f1xx_hal_dma.c ****     /* DMA1 */
 168:Drivers/STM32F1xx_HAL_Driver/Src/stm32f1xx_hal_dma.c ****     hdma->ChannelIndex = (((uint32_t)hdma->Instance - (uint32_t)DMA1_Channel1) / ((uint32_t)DMA1_Ch
 169:Drivers/STM32F1xx_HAL_Driver/Src/stm32f1xx_hal_dma.c ****     hdma->DmaBaseAddress = DMA1;
 170:Drivers/STM32F1xx_HAL_Driver/Src/stm32f1xx_hal_dma.c ****   }
 171:Drivers/STM32F1xx_HAL_Driver/Src/stm32f1xx_hal_dma.c ****   else 
 172:Drivers/STM32F1xx_HAL_Driver/Src/stm32f1xx_hal_dma.c ****   {
 173:Drivers/STM32F1xx_HAL_Driver/Src/stm32f1xx_hal_dma.c ****     /* DMA2 */
 174:Drivers/STM32F1xx_HAL_Driver/Src/stm32f1xx_hal_dma.c ****     hdma->ChannelIndex = (((uint32_t)hdma->Instance - (uint32_t)DMA2_Channel1) / ((uint32_t)DMA2_Ch
 175:Drivers/STM32F1xx_HAL_Driver/Src/stm32f1xx_hal_dma.c ****     hdma->DmaBaseAddress = DMA2;
 176:Drivers/STM32F1xx_HAL_Driver/Src/stm32f1xx_hal_dma.c ****   }
 177:Drivers/STM32F1xx_HAL_Driver/Src/stm32f1xx_hal_dma.c **** #else
 178:Drivers/STM32F1xx_HAL_Driver/Src/stm32f1xx_hal_dma.c ****   /* DMA1 */
 179:Drivers/STM32F1xx_HAL_Driver/Src/stm32f1xx_hal_dma.c ****   hdma->ChannelIndex = (((uint32_t)hdma->Instance - (uint32_t)DMA1_Channel1) / ((uint32_t)DMA1_Chan
 180:Drivers/STM32F1xx_HAL_Driver/Src/stm32f1xx_hal_dma.c ****   hdma->DmaBaseAddress = DMA1;
 181:Drivers/STM32F1xx_HAL_Driver/Src/stm32f1xx_hal_dma.c **** #endif /* DMA2 */
 182:Drivers/STM32F1xx_HAL_Driver/Src/stm32f1xx_hal_dma.c **** 
 183:Drivers/STM32F1xx_HAL_Driver/Src/stm32f1xx_hal_dma.c ****   /* Change DMA peripheral state */
 184:Drivers/STM32F1xx_HAL_Driver/Src/stm32f1xx_hal_dma.c ****   hdma->State = HAL_DMA_STATE_BUSY;
 185:Drivers/STM32F1xx_HAL_Driver/Src/stm32f1xx_hal_dma.c **** 
 186:Drivers/STM32F1xx_HAL_Driver/Src/stm32f1xx_hal_dma.c ****   /* Get the CR register value */
 187:Drivers/STM32F1xx_HAL_Driver/Src/stm32f1xx_hal_dma.c ****   tmp = hdma->Instance->CCR;
 188:Drivers/STM32F1xx_HAL_Driver/Src/stm32f1xx_hal_dma.c **** 
 189:Drivers/STM32F1xx_HAL_Driver/Src/stm32f1xx_hal_dma.c ****   /* Clear PL, MSIZE, PSIZE, MINC, PINC, CIRC and DIR bits */
 190:Drivers/STM32F1xx_HAL_Driver/Src/stm32f1xx_hal_dma.c ****   tmp &= ((uint32_t)~(DMA_CCR_PL    | DMA_CCR_MSIZE  | DMA_CCR_PSIZE  | \
 191:Drivers/STM32F1xx_HAL_Driver/Src/stm32f1xx_hal_dma.c ****                       DMA_CCR_MINC  | DMA_CCR_PINC   | DMA_CCR_CIRC   | \
 192:Drivers/STM32F1xx_HAL_Driver/Src/stm32f1xx_hal_dma.c ****                       DMA_CCR_DIR));
 193:Drivers/STM32F1xx_HAL_Driver/Src/stm32f1xx_hal_dma.c **** 
 194:Drivers/STM32F1xx_HAL_Driver/Src/stm32f1xx_hal_dma.c ****   /* Prepare the DMA Channel configuration */
 195:Drivers/STM32F1xx_HAL_Driver/Src/stm32f1xx_hal_dma.c ****   tmp |=  hdma->Init.Direction        |
 196:Drivers/STM32F1xx_HAL_Driver/Src/stm32f1xx_hal_dma.c ****           hdma->Init.PeriphInc           | hdma->Init.MemInc           |
 197:Drivers/STM32F1xx_HAL_Driver/Src/stm32f1xx_hal_dma.c ****           hdma->Init.PeriphDataAlignment | hdma->Init.MemDataAlignment |
 198:Drivers/STM32F1xx_HAL_Driver/Src/stm32f1xx_hal_dma.c ****           hdma->Init.Mode                | hdma->Init.Priority;
 199:Drivers/STM32F1xx_HAL_Driver/Src/stm32f1xx_hal_dma.c **** 
 200:Drivers/STM32F1xx_HAL_Driver/Src/stm32f1xx_hal_dma.c ****   /* Write to DMA Channel CR register */
 201:Drivers/STM32F1xx_HAL_Driver/Src/stm32f1xx_hal_dma.c ****   hdma->Instance->CCR = tmp;
 202:Drivers/STM32F1xx_HAL_Driver/Src/stm32f1xx_hal_dma.c **** 
 203:Drivers/STM32F1xx_HAL_Driver/Src/stm32f1xx_hal_dma.c ****   /* Initialise the error code */
ARM GAS  /tmp/cc2tQgYP.s 			page 5


 204:Drivers/STM32F1xx_HAL_Driver/Src/stm32f1xx_hal_dma.c ****   hdma->ErrorCode = HAL_DMA_ERROR_NONE;
 205:Drivers/STM32F1xx_HAL_Driver/Src/stm32f1xx_hal_dma.c **** 
 206:Drivers/STM32F1xx_HAL_Driver/Src/stm32f1xx_hal_dma.c ****   /* Initialize the DMA state*/
 207:Drivers/STM32F1xx_HAL_Driver/Src/stm32f1xx_hal_dma.c ****   hdma->State = HAL_DMA_STATE_READY;
 208:Drivers/STM32F1xx_HAL_Driver/Src/stm32f1xx_hal_dma.c ****   /* Allocate lock resource and initialize it */
 209:Drivers/STM32F1xx_HAL_Driver/Src/stm32f1xx_hal_dma.c ****   hdma->Lock = HAL_UNLOCKED;
 210:Drivers/STM32F1xx_HAL_Driver/Src/stm32f1xx_hal_dma.c **** 
 211:Drivers/STM32F1xx_HAL_Driver/Src/stm32f1xx_hal_dma.c ****   return HAL_OK;
 212:Drivers/STM32F1xx_HAL_Driver/Src/stm32f1xx_hal_dma.c **** }
 213:Drivers/STM32F1xx_HAL_Driver/Src/stm32f1xx_hal_dma.c **** 
 214:Drivers/STM32F1xx_HAL_Driver/Src/stm32f1xx_hal_dma.c **** /**
 215:Drivers/STM32F1xx_HAL_Driver/Src/stm32f1xx_hal_dma.c ****   * @brief  DeInitialize the DMA peripheral.
 216:Drivers/STM32F1xx_HAL_Driver/Src/stm32f1xx_hal_dma.c ****   * @param  hdma: pointer to a DMA_HandleTypeDef structure that contains
 217:Drivers/STM32F1xx_HAL_Driver/Src/stm32f1xx_hal_dma.c ****   *               the configuration information for the specified DMA Channel.
 218:Drivers/STM32F1xx_HAL_Driver/Src/stm32f1xx_hal_dma.c ****   * @retval HAL status
 219:Drivers/STM32F1xx_HAL_Driver/Src/stm32f1xx_hal_dma.c ****   */
 220:Drivers/STM32F1xx_HAL_Driver/Src/stm32f1xx_hal_dma.c **** HAL_StatusTypeDef HAL_DMA_DeInit(DMA_HandleTypeDef *hdma)
 221:Drivers/STM32F1xx_HAL_Driver/Src/stm32f1xx_hal_dma.c **** {
 222:Drivers/STM32F1xx_HAL_Driver/Src/stm32f1xx_hal_dma.c ****   /* Check the DMA handle allocation */
 223:Drivers/STM32F1xx_HAL_Driver/Src/stm32f1xx_hal_dma.c ****   if(hdma == NULL)
 224:Drivers/STM32F1xx_HAL_Driver/Src/stm32f1xx_hal_dma.c ****   {
 225:Drivers/STM32F1xx_HAL_Driver/Src/stm32f1xx_hal_dma.c ****     return HAL_ERROR;
 226:Drivers/STM32F1xx_HAL_Driver/Src/stm32f1xx_hal_dma.c ****   }
 227:Drivers/STM32F1xx_HAL_Driver/Src/stm32f1xx_hal_dma.c **** 
 228:Drivers/STM32F1xx_HAL_Driver/Src/stm32f1xx_hal_dma.c ****   /* Check the parameters */
 229:Drivers/STM32F1xx_HAL_Driver/Src/stm32f1xx_hal_dma.c ****   assert_param(IS_DMA_ALL_INSTANCE(hdma->Instance));
 230:Drivers/STM32F1xx_HAL_Driver/Src/stm32f1xx_hal_dma.c **** 
 231:Drivers/STM32F1xx_HAL_Driver/Src/stm32f1xx_hal_dma.c ****   /* Disable the selected DMA Channelx */
 232:Drivers/STM32F1xx_HAL_Driver/Src/stm32f1xx_hal_dma.c ****   __HAL_DMA_DISABLE(hdma);
 233:Drivers/STM32F1xx_HAL_Driver/Src/stm32f1xx_hal_dma.c **** 
 234:Drivers/STM32F1xx_HAL_Driver/Src/stm32f1xx_hal_dma.c ****   /* Reset DMA Channel control register */
 235:Drivers/STM32F1xx_HAL_Driver/Src/stm32f1xx_hal_dma.c ****   hdma->Instance->CCR  = 0U;
 236:Drivers/STM32F1xx_HAL_Driver/Src/stm32f1xx_hal_dma.c **** 
 237:Drivers/STM32F1xx_HAL_Driver/Src/stm32f1xx_hal_dma.c ****   /* Reset DMA Channel Number of Data to Transfer register */
 238:Drivers/STM32F1xx_HAL_Driver/Src/stm32f1xx_hal_dma.c ****   hdma->Instance->CNDTR = 0U;
 239:Drivers/STM32F1xx_HAL_Driver/Src/stm32f1xx_hal_dma.c **** 
 240:Drivers/STM32F1xx_HAL_Driver/Src/stm32f1xx_hal_dma.c ****   /* Reset DMA Channel peripheral address register */
 241:Drivers/STM32F1xx_HAL_Driver/Src/stm32f1xx_hal_dma.c ****   hdma->Instance->CPAR  = 0U;
 242:Drivers/STM32F1xx_HAL_Driver/Src/stm32f1xx_hal_dma.c **** 
 243:Drivers/STM32F1xx_HAL_Driver/Src/stm32f1xx_hal_dma.c ****   /* Reset DMA Channel memory address register */
 244:Drivers/STM32F1xx_HAL_Driver/Src/stm32f1xx_hal_dma.c ****   hdma->Instance->CMAR = 0U;
 245:Drivers/STM32F1xx_HAL_Driver/Src/stm32f1xx_hal_dma.c **** 
 246:Drivers/STM32F1xx_HAL_Driver/Src/stm32f1xx_hal_dma.c **** #if defined (DMA2)
 247:Drivers/STM32F1xx_HAL_Driver/Src/stm32f1xx_hal_dma.c ****   /* calculation of the channel index */
 248:Drivers/STM32F1xx_HAL_Driver/Src/stm32f1xx_hal_dma.c ****   if ((uint32_t)(hdma->Instance) < (uint32_t)(DMA2_Channel1))
 249:Drivers/STM32F1xx_HAL_Driver/Src/stm32f1xx_hal_dma.c ****   {
 250:Drivers/STM32F1xx_HAL_Driver/Src/stm32f1xx_hal_dma.c ****     /* DMA1 */
 251:Drivers/STM32F1xx_HAL_Driver/Src/stm32f1xx_hal_dma.c ****     hdma->ChannelIndex = (((uint32_t)hdma->Instance - (uint32_t)DMA1_Channel1) / ((uint32_t)DMA1_Ch
 252:Drivers/STM32F1xx_HAL_Driver/Src/stm32f1xx_hal_dma.c ****     hdma->DmaBaseAddress = DMA1;
 253:Drivers/STM32F1xx_HAL_Driver/Src/stm32f1xx_hal_dma.c ****   }
 254:Drivers/STM32F1xx_HAL_Driver/Src/stm32f1xx_hal_dma.c ****   else
 255:Drivers/STM32F1xx_HAL_Driver/Src/stm32f1xx_hal_dma.c ****   {
 256:Drivers/STM32F1xx_HAL_Driver/Src/stm32f1xx_hal_dma.c ****     /* DMA2 */
 257:Drivers/STM32F1xx_HAL_Driver/Src/stm32f1xx_hal_dma.c ****     hdma->ChannelIndex = (((uint32_t)hdma->Instance - (uint32_t)DMA2_Channel1) / ((uint32_t)DMA2_Ch
 258:Drivers/STM32F1xx_HAL_Driver/Src/stm32f1xx_hal_dma.c ****     hdma->DmaBaseAddress = DMA2;
 259:Drivers/STM32F1xx_HAL_Driver/Src/stm32f1xx_hal_dma.c ****   }
 260:Drivers/STM32F1xx_HAL_Driver/Src/stm32f1xx_hal_dma.c **** #else
ARM GAS  /tmp/cc2tQgYP.s 			page 6


 261:Drivers/STM32F1xx_HAL_Driver/Src/stm32f1xx_hal_dma.c ****   /* DMA1 */
 262:Drivers/STM32F1xx_HAL_Driver/Src/stm32f1xx_hal_dma.c ****   hdma->ChannelIndex = (((uint32_t)hdma->Instance - (uint32_t)DMA1_Channel1) / ((uint32_t)DMA1_Chan
 263:Drivers/STM32F1xx_HAL_Driver/Src/stm32f1xx_hal_dma.c ****   hdma->DmaBaseAddress = DMA1;
 264:Drivers/STM32F1xx_HAL_Driver/Src/stm32f1xx_hal_dma.c **** #endif /* DMA2 */
 265:Drivers/STM32F1xx_HAL_Driver/Src/stm32f1xx_hal_dma.c **** 
 266:Drivers/STM32F1xx_HAL_Driver/Src/stm32f1xx_hal_dma.c ****   /* Clear all flags */
 267:Drivers/STM32F1xx_HAL_Driver/Src/stm32f1xx_hal_dma.c ****   hdma->DmaBaseAddress->IFCR = (DMA_ISR_GIF1 << (hdma->ChannelIndex));
 268:Drivers/STM32F1xx_HAL_Driver/Src/stm32f1xx_hal_dma.c **** 
 269:Drivers/STM32F1xx_HAL_Driver/Src/stm32f1xx_hal_dma.c ****   /* Clean all callbacks */
 270:Drivers/STM32F1xx_HAL_Driver/Src/stm32f1xx_hal_dma.c ****   hdma->XferCpltCallback = NULL;
 271:Drivers/STM32F1xx_HAL_Driver/Src/stm32f1xx_hal_dma.c ****   hdma->XferHalfCpltCallback = NULL;
 272:Drivers/STM32F1xx_HAL_Driver/Src/stm32f1xx_hal_dma.c ****   hdma->XferErrorCallback = NULL;
 273:Drivers/STM32F1xx_HAL_Driver/Src/stm32f1xx_hal_dma.c ****   hdma->XferAbortCallback = NULL;
 274:Drivers/STM32F1xx_HAL_Driver/Src/stm32f1xx_hal_dma.c **** 
 275:Drivers/STM32F1xx_HAL_Driver/Src/stm32f1xx_hal_dma.c ****   /* Reset the error code */
 276:Drivers/STM32F1xx_HAL_Driver/Src/stm32f1xx_hal_dma.c ****   hdma->ErrorCode = HAL_DMA_ERROR_NONE;
 277:Drivers/STM32F1xx_HAL_Driver/Src/stm32f1xx_hal_dma.c **** 
 278:Drivers/STM32F1xx_HAL_Driver/Src/stm32f1xx_hal_dma.c ****   /* Reset the DMA state */
 279:Drivers/STM32F1xx_HAL_Driver/Src/stm32f1xx_hal_dma.c ****   hdma->State = HAL_DMA_STATE_RESET;
 280:Drivers/STM32F1xx_HAL_Driver/Src/stm32f1xx_hal_dma.c **** 
 281:Drivers/STM32F1xx_HAL_Driver/Src/stm32f1xx_hal_dma.c ****   /* Release Lock */
 282:Drivers/STM32F1xx_HAL_Driver/Src/stm32f1xx_hal_dma.c ****   __HAL_UNLOCK(hdma);
 283:Drivers/STM32F1xx_HAL_Driver/Src/stm32f1xx_hal_dma.c **** 
 284:Drivers/STM32F1xx_HAL_Driver/Src/stm32f1xx_hal_dma.c ****   return HAL_OK;
 285:Drivers/STM32F1xx_HAL_Driver/Src/stm32f1xx_hal_dma.c **** }
 286:Drivers/STM32F1xx_HAL_Driver/Src/stm32f1xx_hal_dma.c **** 
 287:Drivers/STM32F1xx_HAL_Driver/Src/stm32f1xx_hal_dma.c **** /**
 288:Drivers/STM32F1xx_HAL_Driver/Src/stm32f1xx_hal_dma.c ****   * @}
 289:Drivers/STM32F1xx_HAL_Driver/Src/stm32f1xx_hal_dma.c ****   */
 290:Drivers/STM32F1xx_HAL_Driver/Src/stm32f1xx_hal_dma.c **** 
 291:Drivers/STM32F1xx_HAL_Driver/Src/stm32f1xx_hal_dma.c **** /** @defgroup DMA_Exported_Functions_Group2 Input and Output operation functions
 292:Drivers/STM32F1xx_HAL_Driver/Src/stm32f1xx_hal_dma.c ****   *  @brief   Input and Output operation functions
 293:Drivers/STM32F1xx_HAL_Driver/Src/stm32f1xx_hal_dma.c ****   *
 294:Drivers/STM32F1xx_HAL_Driver/Src/stm32f1xx_hal_dma.c **** @verbatim
 295:Drivers/STM32F1xx_HAL_Driver/Src/stm32f1xx_hal_dma.c ****  ===============================================================================
 296:Drivers/STM32F1xx_HAL_Driver/Src/stm32f1xx_hal_dma.c ****                       #####  IO operation functions  #####
 297:Drivers/STM32F1xx_HAL_Driver/Src/stm32f1xx_hal_dma.c ****  ===============================================================================
 298:Drivers/STM32F1xx_HAL_Driver/Src/stm32f1xx_hal_dma.c ****     [..]  This section provides functions allowing to:
 299:Drivers/STM32F1xx_HAL_Driver/Src/stm32f1xx_hal_dma.c ****       (+) Configure the source, destination address and data length and Start DMA transfer
 300:Drivers/STM32F1xx_HAL_Driver/Src/stm32f1xx_hal_dma.c ****       (+) Configure the source, destination address and data length and
 301:Drivers/STM32F1xx_HAL_Driver/Src/stm32f1xx_hal_dma.c ****           Start DMA transfer with interrupt
 302:Drivers/STM32F1xx_HAL_Driver/Src/stm32f1xx_hal_dma.c ****       (+) Abort DMA transfer
 303:Drivers/STM32F1xx_HAL_Driver/Src/stm32f1xx_hal_dma.c ****       (+) Poll for transfer complete
 304:Drivers/STM32F1xx_HAL_Driver/Src/stm32f1xx_hal_dma.c ****       (+) Handle DMA interrupt request
 305:Drivers/STM32F1xx_HAL_Driver/Src/stm32f1xx_hal_dma.c **** 
 306:Drivers/STM32F1xx_HAL_Driver/Src/stm32f1xx_hal_dma.c **** @endverbatim
 307:Drivers/STM32F1xx_HAL_Driver/Src/stm32f1xx_hal_dma.c ****   * @{
 308:Drivers/STM32F1xx_HAL_Driver/Src/stm32f1xx_hal_dma.c ****   */
 309:Drivers/STM32F1xx_HAL_Driver/Src/stm32f1xx_hal_dma.c **** 
 310:Drivers/STM32F1xx_HAL_Driver/Src/stm32f1xx_hal_dma.c **** /**
 311:Drivers/STM32F1xx_HAL_Driver/Src/stm32f1xx_hal_dma.c ****   * @brief  Start the DMA Transfer.
 312:Drivers/STM32F1xx_HAL_Driver/Src/stm32f1xx_hal_dma.c ****   * @param  hdma: pointer to a DMA_HandleTypeDef structure that contains
 313:Drivers/STM32F1xx_HAL_Driver/Src/stm32f1xx_hal_dma.c ****   *               the configuration information for the specified DMA Channel.
 314:Drivers/STM32F1xx_HAL_Driver/Src/stm32f1xx_hal_dma.c ****   * @param  SrcAddress: The source memory Buffer address
 315:Drivers/STM32F1xx_HAL_Driver/Src/stm32f1xx_hal_dma.c ****   * @param  DstAddress: The destination memory Buffer address
 316:Drivers/STM32F1xx_HAL_Driver/Src/stm32f1xx_hal_dma.c ****   * @param  DataLength: The length of data to be transferred from source to destination
 317:Drivers/STM32F1xx_HAL_Driver/Src/stm32f1xx_hal_dma.c ****   * @retval HAL status
ARM GAS  /tmp/cc2tQgYP.s 			page 7


 318:Drivers/STM32F1xx_HAL_Driver/Src/stm32f1xx_hal_dma.c ****   */
 319:Drivers/STM32F1xx_HAL_Driver/Src/stm32f1xx_hal_dma.c **** HAL_StatusTypeDef HAL_DMA_Start(DMA_HandleTypeDef *hdma, uint32_t SrcAddress, uint32_t DstAddress, 
 320:Drivers/STM32F1xx_HAL_Driver/Src/stm32f1xx_hal_dma.c **** {
 321:Drivers/STM32F1xx_HAL_Driver/Src/stm32f1xx_hal_dma.c ****   HAL_StatusTypeDef status = HAL_OK;
 322:Drivers/STM32F1xx_HAL_Driver/Src/stm32f1xx_hal_dma.c **** 
 323:Drivers/STM32F1xx_HAL_Driver/Src/stm32f1xx_hal_dma.c ****   /* Check the parameters */
 324:Drivers/STM32F1xx_HAL_Driver/Src/stm32f1xx_hal_dma.c ****   assert_param(IS_DMA_BUFFER_SIZE(DataLength));
 325:Drivers/STM32F1xx_HAL_Driver/Src/stm32f1xx_hal_dma.c **** 
 326:Drivers/STM32F1xx_HAL_Driver/Src/stm32f1xx_hal_dma.c ****   /* Process locked */
 327:Drivers/STM32F1xx_HAL_Driver/Src/stm32f1xx_hal_dma.c ****   __HAL_LOCK(hdma);
 328:Drivers/STM32F1xx_HAL_Driver/Src/stm32f1xx_hal_dma.c **** 
 329:Drivers/STM32F1xx_HAL_Driver/Src/stm32f1xx_hal_dma.c ****   if(HAL_DMA_STATE_READY == hdma->State)
 330:Drivers/STM32F1xx_HAL_Driver/Src/stm32f1xx_hal_dma.c ****   {
 331:Drivers/STM32F1xx_HAL_Driver/Src/stm32f1xx_hal_dma.c ****     /* Change DMA peripheral state */
 332:Drivers/STM32F1xx_HAL_Driver/Src/stm32f1xx_hal_dma.c ****     hdma->State = HAL_DMA_STATE_BUSY;
 333:Drivers/STM32F1xx_HAL_Driver/Src/stm32f1xx_hal_dma.c ****     hdma->ErrorCode = HAL_DMA_ERROR_NONE;
 334:Drivers/STM32F1xx_HAL_Driver/Src/stm32f1xx_hal_dma.c ****             
 335:Drivers/STM32F1xx_HAL_Driver/Src/stm32f1xx_hal_dma.c ****     /* Disable the peripheral */
 336:Drivers/STM32F1xx_HAL_Driver/Src/stm32f1xx_hal_dma.c ****     __HAL_DMA_DISABLE(hdma);
 337:Drivers/STM32F1xx_HAL_Driver/Src/stm32f1xx_hal_dma.c ****     
 338:Drivers/STM32F1xx_HAL_Driver/Src/stm32f1xx_hal_dma.c ****     /* Configure the source, destination address and the data length & clear flags*/
 339:Drivers/STM32F1xx_HAL_Driver/Src/stm32f1xx_hal_dma.c ****     DMA_SetConfig(hdma, SrcAddress, DstAddress, DataLength);
 340:Drivers/STM32F1xx_HAL_Driver/Src/stm32f1xx_hal_dma.c ****     
 341:Drivers/STM32F1xx_HAL_Driver/Src/stm32f1xx_hal_dma.c ****     /* Enable the Peripheral */
 342:Drivers/STM32F1xx_HAL_Driver/Src/stm32f1xx_hal_dma.c ****     __HAL_DMA_ENABLE(hdma);
 343:Drivers/STM32F1xx_HAL_Driver/Src/stm32f1xx_hal_dma.c ****   }
 344:Drivers/STM32F1xx_HAL_Driver/Src/stm32f1xx_hal_dma.c ****   else
 345:Drivers/STM32F1xx_HAL_Driver/Src/stm32f1xx_hal_dma.c ****   {
 346:Drivers/STM32F1xx_HAL_Driver/Src/stm32f1xx_hal_dma.c ****    /* Process Unlocked */
 347:Drivers/STM32F1xx_HAL_Driver/Src/stm32f1xx_hal_dma.c ****    __HAL_UNLOCK(hdma);  
 348:Drivers/STM32F1xx_HAL_Driver/Src/stm32f1xx_hal_dma.c ****    status = HAL_BUSY;
 349:Drivers/STM32F1xx_HAL_Driver/Src/stm32f1xx_hal_dma.c ****   }  
 350:Drivers/STM32F1xx_HAL_Driver/Src/stm32f1xx_hal_dma.c ****   return status;
 351:Drivers/STM32F1xx_HAL_Driver/Src/stm32f1xx_hal_dma.c **** }
 352:Drivers/STM32F1xx_HAL_Driver/Src/stm32f1xx_hal_dma.c **** 
 353:Drivers/STM32F1xx_HAL_Driver/Src/stm32f1xx_hal_dma.c **** /**
 354:Drivers/STM32F1xx_HAL_Driver/Src/stm32f1xx_hal_dma.c ****   * @brief  Start the DMA Transfer with interrupt enabled.
 355:Drivers/STM32F1xx_HAL_Driver/Src/stm32f1xx_hal_dma.c ****   * @param  hdma: pointer to a DMA_HandleTypeDef structure that contains
 356:Drivers/STM32F1xx_HAL_Driver/Src/stm32f1xx_hal_dma.c ****   *               the configuration information for the specified DMA Channel.
 357:Drivers/STM32F1xx_HAL_Driver/Src/stm32f1xx_hal_dma.c ****   * @param  SrcAddress: The source memory Buffer address
 358:Drivers/STM32F1xx_HAL_Driver/Src/stm32f1xx_hal_dma.c ****   * @param  DstAddress: The destination memory Buffer address
 359:Drivers/STM32F1xx_HAL_Driver/Src/stm32f1xx_hal_dma.c ****   * @param  DataLength: The length of data to be transferred from source to destination
 360:Drivers/STM32F1xx_HAL_Driver/Src/stm32f1xx_hal_dma.c ****   * @retval HAL status
 361:Drivers/STM32F1xx_HAL_Driver/Src/stm32f1xx_hal_dma.c ****   */
 362:Drivers/STM32F1xx_HAL_Driver/Src/stm32f1xx_hal_dma.c **** HAL_StatusTypeDef HAL_DMA_Start_IT(DMA_HandleTypeDef *hdma, uint32_t SrcAddress, uint32_t DstAddres
 363:Drivers/STM32F1xx_HAL_Driver/Src/stm32f1xx_hal_dma.c **** {
 364:Drivers/STM32F1xx_HAL_Driver/Src/stm32f1xx_hal_dma.c ****   HAL_StatusTypeDef status = HAL_OK;
 365:Drivers/STM32F1xx_HAL_Driver/Src/stm32f1xx_hal_dma.c **** 
 366:Drivers/STM32F1xx_HAL_Driver/Src/stm32f1xx_hal_dma.c ****   /* Check the parameters */
 367:Drivers/STM32F1xx_HAL_Driver/Src/stm32f1xx_hal_dma.c ****   assert_param(IS_DMA_BUFFER_SIZE(DataLength));
 368:Drivers/STM32F1xx_HAL_Driver/Src/stm32f1xx_hal_dma.c **** 
 369:Drivers/STM32F1xx_HAL_Driver/Src/stm32f1xx_hal_dma.c ****   /* Process locked */
 370:Drivers/STM32F1xx_HAL_Driver/Src/stm32f1xx_hal_dma.c ****   __HAL_LOCK(hdma);
 371:Drivers/STM32F1xx_HAL_Driver/Src/stm32f1xx_hal_dma.c ****   
 372:Drivers/STM32F1xx_HAL_Driver/Src/stm32f1xx_hal_dma.c ****   if(HAL_DMA_STATE_READY == hdma->State)
 373:Drivers/STM32F1xx_HAL_Driver/Src/stm32f1xx_hal_dma.c ****   {
 374:Drivers/STM32F1xx_HAL_Driver/Src/stm32f1xx_hal_dma.c ****     /* Change DMA peripheral state */
ARM GAS  /tmp/cc2tQgYP.s 			page 8


 375:Drivers/STM32F1xx_HAL_Driver/Src/stm32f1xx_hal_dma.c ****     hdma->State = HAL_DMA_STATE_BUSY;
 376:Drivers/STM32F1xx_HAL_Driver/Src/stm32f1xx_hal_dma.c ****     hdma->ErrorCode = HAL_DMA_ERROR_NONE;
 377:Drivers/STM32F1xx_HAL_Driver/Src/stm32f1xx_hal_dma.c ****     
 378:Drivers/STM32F1xx_HAL_Driver/Src/stm32f1xx_hal_dma.c ****     /* Disable the peripheral */
 379:Drivers/STM32F1xx_HAL_Driver/Src/stm32f1xx_hal_dma.c ****     __HAL_DMA_DISABLE(hdma);
 380:Drivers/STM32F1xx_HAL_Driver/Src/stm32f1xx_hal_dma.c ****     
 381:Drivers/STM32F1xx_HAL_Driver/Src/stm32f1xx_hal_dma.c ****     /* Configure the source, destination address and the data length & clear flags*/
 382:Drivers/STM32F1xx_HAL_Driver/Src/stm32f1xx_hal_dma.c ****     DMA_SetConfig(hdma, SrcAddress, DstAddress, DataLength);
 383:Drivers/STM32F1xx_HAL_Driver/Src/stm32f1xx_hal_dma.c ****     
 384:Drivers/STM32F1xx_HAL_Driver/Src/stm32f1xx_hal_dma.c ****     /* Enable the transfer complete interrupt */
 385:Drivers/STM32F1xx_HAL_Driver/Src/stm32f1xx_hal_dma.c ****     /* Enable the transfer Error interrupt */
 386:Drivers/STM32F1xx_HAL_Driver/Src/stm32f1xx_hal_dma.c ****     if(NULL != hdma->XferHalfCpltCallback)
 387:Drivers/STM32F1xx_HAL_Driver/Src/stm32f1xx_hal_dma.c ****     {
 388:Drivers/STM32F1xx_HAL_Driver/Src/stm32f1xx_hal_dma.c ****       /* Enable the Half transfer complete interrupt as well */
 389:Drivers/STM32F1xx_HAL_Driver/Src/stm32f1xx_hal_dma.c ****       __HAL_DMA_ENABLE_IT(hdma, (DMA_IT_TC | DMA_IT_HT | DMA_IT_TE));
 390:Drivers/STM32F1xx_HAL_Driver/Src/stm32f1xx_hal_dma.c ****     }
 391:Drivers/STM32F1xx_HAL_Driver/Src/stm32f1xx_hal_dma.c ****     else
 392:Drivers/STM32F1xx_HAL_Driver/Src/stm32f1xx_hal_dma.c ****     {
 393:Drivers/STM32F1xx_HAL_Driver/Src/stm32f1xx_hal_dma.c ****       __HAL_DMA_DISABLE_IT(hdma, DMA_IT_HT);
 394:Drivers/STM32F1xx_HAL_Driver/Src/stm32f1xx_hal_dma.c ****       __HAL_DMA_ENABLE_IT(hdma, (DMA_IT_TC | DMA_IT_TE));
 395:Drivers/STM32F1xx_HAL_Driver/Src/stm32f1xx_hal_dma.c ****     }
 396:Drivers/STM32F1xx_HAL_Driver/Src/stm32f1xx_hal_dma.c ****     /* Enable the Peripheral */
 397:Drivers/STM32F1xx_HAL_Driver/Src/stm32f1xx_hal_dma.c ****     __HAL_DMA_ENABLE(hdma);
 398:Drivers/STM32F1xx_HAL_Driver/Src/stm32f1xx_hal_dma.c ****   }
 399:Drivers/STM32F1xx_HAL_Driver/Src/stm32f1xx_hal_dma.c ****   else
 400:Drivers/STM32F1xx_HAL_Driver/Src/stm32f1xx_hal_dma.c ****   {      
 401:Drivers/STM32F1xx_HAL_Driver/Src/stm32f1xx_hal_dma.c ****     /* Process Unlocked */
 402:Drivers/STM32F1xx_HAL_Driver/Src/stm32f1xx_hal_dma.c ****     __HAL_UNLOCK(hdma); 
 403:Drivers/STM32F1xx_HAL_Driver/Src/stm32f1xx_hal_dma.c **** 
 404:Drivers/STM32F1xx_HAL_Driver/Src/stm32f1xx_hal_dma.c ****     /* Remain BUSY */
 405:Drivers/STM32F1xx_HAL_Driver/Src/stm32f1xx_hal_dma.c ****     status = HAL_BUSY;
 406:Drivers/STM32F1xx_HAL_Driver/Src/stm32f1xx_hal_dma.c ****   }    
 407:Drivers/STM32F1xx_HAL_Driver/Src/stm32f1xx_hal_dma.c ****   return status;
 408:Drivers/STM32F1xx_HAL_Driver/Src/stm32f1xx_hal_dma.c **** }
 409:Drivers/STM32F1xx_HAL_Driver/Src/stm32f1xx_hal_dma.c **** 
 410:Drivers/STM32F1xx_HAL_Driver/Src/stm32f1xx_hal_dma.c **** /**
 411:Drivers/STM32F1xx_HAL_Driver/Src/stm32f1xx_hal_dma.c ****   * @brief  Abort the DMA Transfer.
 412:Drivers/STM32F1xx_HAL_Driver/Src/stm32f1xx_hal_dma.c ****   * @param  hdma: pointer to a DMA_HandleTypeDef structure that contains
 413:Drivers/STM32F1xx_HAL_Driver/Src/stm32f1xx_hal_dma.c ****   *               the configuration information for the specified DMA Channel.
 414:Drivers/STM32F1xx_HAL_Driver/Src/stm32f1xx_hal_dma.c ****   * @retval HAL status
 415:Drivers/STM32F1xx_HAL_Driver/Src/stm32f1xx_hal_dma.c ****   */
 416:Drivers/STM32F1xx_HAL_Driver/Src/stm32f1xx_hal_dma.c **** HAL_StatusTypeDef HAL_DMA_Abort(DMA_HandleTypeDef *hdma)
 417:Drivers/STM32F1xx_HAL_Driver/Src/stm32f1xx_hal_dma.c **** {
 418:Drivers/STM32F1xx_HAL_Driver/Src/stm32f1xx_hal_dma.c ****   HAL_StatusTypeDef status = HAL_OK;
 419:Drivers/STM32F1xx_HAL_Driver/Src/stm32f1xx_hal_dma.c ****   
 420:Drivers/STM32F1xx_HAL_Driver/Src/stm32f1xx_hal_dma.c ****   if(hdma->State != HAL_DMA_STATE_BUSY)
 421:Drivers/STM32F1xx_HAL_Driver/Src/stm32f1xx_hal_dma.c ****   {
 422:Drivers/STM32F1xx_HAL_Driver/Src/stm32f1xx_hal_dma.c ****     /* no transfer ongoing */
 423:Drivers/STM32F1xx_HAL_Driver/Src/stm32f1xx_hal_dma.c ****     hdma->ErrorCode = HAL_DMA_ERROR_NO_XFER;
 424:Drivers/STM32F1xx_HAL_Driver/Src/stm32f1xx_hal_dma.c ****     
 425:Drivers/STM32F1xx_HAL_Driver/Src/stm32f1xx_hal_dma.c ****     /* Process Unlocked */
 426:Drivers/STM32F1xx_HAL_Driver/Src/stm32f1xx_hal_dma.c ****     __HAL_UNLOCK(hdma);
 427:Drivers/STM32F1xx_HAL_Driver/Src/stm32f1xx_hal_dma.c ****     
 428:Drivers/STM32F1xx_HAL_Driver/Src/stm32f1xx_hal_dma.c ****     return HAL_ERROR;
 429:Drivers/STM32F1xx_HAL_Driver/Src/stm32f1xx_hal_dma.c ****   }
 430:Drivers/STM32F1xx_HAL_Driver/Src/stm32f1xx_hal_dma.c ****   else
 431:Drivers/STM32F1xx_HAL_Driver/Src/stm32f1xx_hal_dma.c **** 
ARM GAS  /tmp/cc2tQgYP.s 			page 9


 432:Drivers/STM32F1xx_HAL_Driver/Src/stm32f1xx_hal_dma.c ****   {
 433:Drivers/STM32F1xx_HAL_Driver/Src/stm32f1xx_hal_dma.c ****     /* Disable DMA IT */
 434:Drivers/STM32F1xx_HAL_Driver/Src/stm32f1xx_hal_dma.c ****     __HAL_DMA_DISABLE_IT(hdma, (DMA_IT_TC | DMA_IT_HT | DMA_IT_TE));
 435:Drivers/STM32F1xx_HAL_Driver/Src/stm32f1xx_hal_dma.c ****       
 436:Drivers/STM32F1xx_HAL_Driver/Src/stm32f1xx_hal_dma.c ****     /* Disable the channel */
 437:Drivers/STM32F1xx_HAL_Driver/Src/stm32f1xx_hal_dma.c ****     __HAL_DMA_DISABLE(hdma);
 438:Drivers/STM32F1xx_HAL_Driver/Src/stm32f1xx_hal_dma.c ****       
 439:Drivers/STM32F1xx_HAL_Driver/Src/stm32f1xx_hal_dma.c ****     /* Clear all flags */
 440:Drivers/STM32F1xx_HAL_Driver/Src/stm32f1xx_hal_dma.c ****     hdma->DmaBaseAddress->IFCR = (DMA_ISR_GIF1 << hdma->ChannelIndex);
 441:Drivers/STM32F1xx_HAL_Driver/Src/stm32f1xx_hal_dma.c ****   }
 442:Drivers/STM32F1xx_HAL_Driver/Src/stm32f1xx_hal_dma.c ****   /* Change the DMA state */
 443:Drivers/STM32F1xx_HAL_Driver/Src/stm32f1xx_hal_dma.c ****   hdma->State = HAL_DMA_STATE_READY;
 444:Drivers/STM32F1xx_HAL_Driver/Src/stm32f1xx_hal_dma.c **** 
 445:Drivers/STM32F1xx_HAL_Driver/Src/stm32f1xx_hal_dma.c ****   /* Process Unlocked */
 446:Drivers/STM32F1xx_HAL_Driver/Src/stm32f1xx_hal_dma.c ****   __HAL_UNLOCK(hdma);      
 447:Drivers/STM32F1xx_HAL_Driver/Src/stm32f1xx_hal_dma.c ****   
 448:Drivers/STM32F1xx_HAL_Driver/Src/stm32f1xx_hal_dma.c ****   return status; 
 449:Drivers/STM32F1xx_HAL_Driver/Src/stm32f1xx_hal_dma.c **** }
 450:Drivers/STM32F1xx_HAL_Driver/Src/stm32f1xx_hal_dma.c **** 
 451:Drivers/STM32F1xx_HAL_Driver/Src/stm32f1xx_hal_dma.c **** /**
 452:Drivers/STM32F1xx_HAL_Driver/Src/stm32f1xx_hal_dma.c ****   * @brief  Aborts the DMA Transfer in Interrupt mode.
 453:Drivers/STM32F1xx_HAL_Driver/Src/stm32f1xx_hal_dma.c ****   * @param  hdma  : pointer to a DMA_HandleTypeDef structure that contains
 454:Drivers/STM32F1xx_HAL_Driver/Src/stm32f1xx_hal_dma.c ****   *                 the configuration information for the specified DMA Channel.
 455:Drivers/STM32F1xx_HAL_Driver/Src/stm32f1xx_hal_dma.c ****   * @retval HAL status
 456:Drivers/STM32F1xx_HAL_Driver/Src/stm32f1xx_hal_dma.c ****   */
 457:Drivers/STM32F1xx_HAL_Driver/Src/stm32f1xx_hal_dma.c **** HAL_StatusTypeDef HAL_DMA_Abort_IT(DMA_HandleTypeDef *hdma)
 458:Drivers/STM32F1xx_HAL_Driver/Src/stm32f1xx_hal_dma.c **** {  
 459:Drivers/STM32F1xx_HAL_Driver/Src/stm32f1xx_hal_dma.c ****   HAL_StatusTypeDef status = HAL_OK;
 460:Drivers/STM32F1xx_HAL_Driver/Src/stm32f1xx_hal_dma.c ****   
 461:Drivers/STM32F1xx_HAL_Driver/Src/stm32f1xx_hal_dma.c ****   if(HAL_DMA_STATE_BUSY != hdma->State)
 462:Drivers/STM32F1xx_HAL_Driver/Src/stm32f1xx_hal_dma.c ****   {
 463:Drivers/STM32F1xx_HAL_Driver/Src/stm32f1xx_hal_dma.c ****     /* no transfer ongoing */
 464:Drivers/STM32F1xx_HAL_Driver/Src/stm32f1xx_hal_dma.c ****     hdma->ErrorCode = HAL_DMA_ERROR_NO_XFER;
 465:Drivers/STM32F1xx_HAL_Driver/Src/stm32f1xx_hal_dma.c ****         
 466:Drivers/STM32F1xx_HAL_Driver/Src/stm32f1xx_hal_dma.c ****     status = HAL_ERROR;
 467:Drivers/STM32F1xx_HAL_Driver/Src/stm32f1xx_hal_dma.c ****   }
 468:Drivers/STM32F1xx_HAL_Driver/Src/stm32f1xx_hal_dma.c ****   else
 469:Drivers/STM32F1xx_HAL_Driver/Src/stm32f1xx_hal_dma.c ****   { 
 470:Drivers/STM32F1xx_HAL_Driver/Src/stm32f1xx_hal_dma.c ****     /* Disable DMA IT */
 471:Drivers/STM32F1xx_HAL_Driver/Src/stm32f1xx_hal_dma.c ****     __HAL_DMA_DISABLE_IT(hdma, (DMA_IT_TC | DMA_IT_HT | DMA_IT_TE));
 472:Drivers/STM32F1xx_HAL_Driver/Src/stm32f1xx_hal_dma.c **** 
 473:Drivers/STM32F1xx_HAL_Driver/Src/stm32f1xx_hal_dma.c ****     /* Disable the channel */
 474:Drivers/STM32F1xx_HAL_Driver/Src/stm32f1xx_hal_dma.c ****     __HAL_DMA_DISABLE(hdma);
 475:Drivers/STM32F1xx_HAL_Driver/Src/stm32f1xx_hal_dma.c **** 
 476:Drivers/STM32F1xx_HAL_Driver/Src/stm32f1xx_hal_dma.c ****     /* Clear all flags */
 477:Drivers/STM32F1xx_HAL_Driver/Src/stm32f1xx_hal_dma.c ****     __HAL_DMA_CLEAR_FLAG(hdma, __HAL_DMA_GET_GI_FLAG_INDEX(hdma));
 478:Drivers/STM32F1xx_HAL_Driver/Src/stm32f1xx_hal_dma.c **** 
 479:Drivers/STM32F1xx_HAL_Driver/Src/stm32f1xx_hal_dma.c ****     /* Change the DMA state */
 480:Drivers/STM32F1xx_HAL_Driver/Src/stm32f1xx_hal_dma.c ****     hdma->State = HAL_DMA_STATE_READY;
 481:Drivers/STM32F1xx_HAL_Driver/Src/stm32f1xx_hal_dma.c **** 
 482:Drivers/STM32F1xx_HAL_Driver/Src/stm32f1xx_hal_dma.c ****     /* Process Unlocked */
 483:Drivers/STM32F1xx_HAL_Driver/Src/stm32f1xx_hal_dma.c ****     __HAL_UNLOCK(hdma);
 484:Drivers/STM32F1xx_HAL_Driver/Src/stm32f1xx_hal_dma.c **** 
 485:Drivers/STM32F1xx_HAL_Driver/Src/stm32f1xx_hal_dma.c ****     /* Call User Abort callback */
 486:Drivers/STM32F1xx_HAL_Driver/Src/stm32f1xx_hal_dma.c ****     if(hdma->XferAbortCallback != NULL)
 487:Drivers/STM32F1xx_HAL_Driver/Src/stm32f1xx_hal_dma.c ****     {
 488:Drivers/STM32F1xx_HAL_Driver/Src/stm32f1xx_hal_dma.c ****       hdma->XferAbortCallback(hdma);
ARM GAS  /tmp/cc2tQgYP.s 			page 10


 489:Drivers/STM32F1xx_HAL_Driver/Src/stm32f1xx_hal_dma.c ****     } 
 490:Drivers/STM32F1xx_HAL_Driver/Src/stm32f1xx_hal_dma.c ****   }
 491:Drivers/STM32F1xx_HAL_Driver/Src/stm32f1xx_hal_dma.c ****   return status;
 492:Drivers/STM32F1xx_HAL_Driver/Src/stm32f1xx_hal_dma.c **** }
 493:Drivers/STM32F1xx_HAL_Driver/Src/stm32f1xx_hal_dma.c **** 
 494:Drivers/STM32F1xx_HAL_Driver/Src/stm32f1xx_hal_dma.c **** /**
 495:Drivers/STM32F1xx_HAL_Driver/Src/stm32f1xx_hal_dma.c ****   * @brief  Polling for transfer complete.
 496:Drivers/STM32F1xx_HAL_Driver/Src/stm32f1xx_hal_dma.c ****   * @param  hdma:    pointer to a DMA_HandleTypeDef structure that contains
 497:Drivers/STM32F1xx_HAL_Driver/Src/stm32f1xx_hal_dma.c ****   *                  the configuration information for the specified DMA Channel.
 498:Drivers/STM32F1xx_HAL_Driver/Src/stm32f1xx_hal_dma.c ****   * @param  CompleteLevel: Specifies the DMA level complete.
 499:Drivers/STM32F1xx_HAL_Driver/Src/stm32f1xx_hal_dma.c ****   * @param  Timeout:       Timeout duration.
 500:Drivers/STM32F1xx_HAL_Driver/Src/stm32f1xx_hal_dma.c ****   * @retval HAL status
 501:Drivers/STM32F1xx_HAL_Driver/Src/stm32f1xx_hal_dma.c ****   */
 502:Drivers/STM32F1xx_HAL_Driver/Src/stm32f1xx_hal_dma.c **** HAL_StatusTypeDef HAL_DMA_PollForTransfer(DMA_HandleTypeDef *hdma, uint32_t CompleteLevel, uint32_t
 503:Drivers/STM32F1xx_HAL_Driver/Src/stm32f1xx_hal_dma.c **** {
 504:Drivers/STM32F1xx_HAL_Driver/Src/stm32f1xx_hal_dma.c ****   uint32_t temp;
 505:Drivers/STM32F1xx_HAL_Driver/Src/stm32f1xx_hal_dma.c ****   uint32_t tickstart = 0U;
 506:Drivers/STM32F1xx_HAL_Driver/Src/stm32f1xx_hal_dma.c **** 
 507:Drivers/STM32F1xx_HAL_Driver/Src/stm32f1xx_hal_dma.c ****   if(HAL_DMA_STATE_BUSY != hdma->State)
 508:Drivers/STM32F1xx_HAL_Driver/Src/stm32f1xx_hal_dma.c ****   {
 509:Drivers/STM32F1xx_HAL_Driver/Src/stm32f1xx_hal_dma.c ****     /* no transfer ongoing */
 510:Drivers/STM32F1xx_HAL_Driver/Src/stm32f1xx_hal_dma.c ****     hdma->ErrorCode = HAL_DMA_ERROR_NO_XFER;
 511:Drivers/STM32F1xx_HAL_Driver/Src/stm32f1xx_hal_dma.c ****     __HAL_UNLOCK(hdma);
 512:Drivers/STM32F1xx_HAL_Driver/Src/stm32f1xx_hal_dma.c ****     return HAL_ERROR;
 513:Drivers/STM32F1xx_HAL_Driver/Src/stm32f1xx_hal_dma.c ****   }
 514:Drivers/STM32F1xx_HAL_Driver/Src/stm32f1xx_hal_dma.c **** 
 515:Drivers/STM32F1xx_HAL_Driver/Src/stm32f1xx_hal_dma.c ****   /* Polling mode not supported in circular mode */
 516:Drivers/STM32F1xx_HAL_Driver/Src/stm32f1xx_hal_dma.c ****   if (RESET != (hdma->Instance->CCR & DMA_CCR_CIRC))
 517:Drivers/STM32F1xx_HAL_Driver/Src/stm32f1xx_hal_dma.c ****   {
 518:Drivers/STM32F1xx_HAL_Driver/Src/stm32f1xx_hal_dma.c ****     hdma->ErrorCode = HAL_DMA_ERROR_NOT_SUPPORTED;
 519:Drivers/STM32F1xx_HAL_Driver/Src/stm32f1xx_hal_dma.c ****     return HAL_ERROR;
 520:Drivers/STM32F1xx_HAL_Driver/Src/stm32f1xx_hal_dma.c ****   }
 521:Drivers/STM32F1xx_HAL_Driver/Src/stm32f1xx_hal_dma.c ****   
 522:Drivers/STM32F1xx_HAL_Driver/Src/stm32f1xx_hal_dma.c ****   /* Get the level transfer complete flag */
 523:Drivers/STM32F1xx_HAL_Driver/Src/stm32f1xx_hal_dma.c ****   if(CompleteLevel == HAL_DMA_FULL_TRANSFER)
 524:Drivers/STM32F1xx_HAL_Driver/Src/stm32f1xx_hal_dma.c ****   {
 525:Drivers/STM32F1xx_HAL_Driver/Src/stm32f1xx_hal_dma.c ****     /* Transfer Complete flag */
 526:Drivers/STM32F1xx_HAL_Driver/Src/stm32f1xx_hal_dma.c ****     temp = __HAL_DMA_GET_TC_FLAG_INDEX(hdma);
 527:Drivers/STM32F1xx_HAL_Driver/Src/stm32f1xx_hal_dma.c ****   }
 528:Drivers/STM32F1xx_HAL_Driver/Src/stm32f1xx_hal_dma.c ****   else
 529:Drivers/STM32F1xx_HAL_Driver/Src/stm32f1xx_hal_dma.c ****   {
 530:Drivers/STM32F1xx_HAL_Driver/Src/stm32f1xx_hal_dma.c ****     /* Half Transfer Complete flag */
 531:Drivers/STM32F1xx_HAL_Driver/Src/stm32f1xx_hal_dma.c ****     temp = __HAL_DMA_GET_HT_FLAG_INDEX(hdma);
 532:Drivers/STM32F1xx_HAL_Driver/Src/stm32f1xx_hal_dma.c ****   }
 533:Drivers/STM32F1xx_HAL_Driver/Src/stm32f1xx_hal_dma.c **** 
 534:Drivers/STM32F1xx_HAL_Driver/Src/stm32f1xx_hal_dma.c ****   /* Get tick */
 535:Drivers/STM32F1xx_HAL_Driver/Src/stm32f1xx_hal_dma.c ****   tickstart = HAL_GetTick();
 536:Drivers/STM32F1xx_HAL_Driver/Src/stm32f1xx_hal_dma.c **** 
 537:Drivers/STM32F1xx_HAL_Driver/Src/stm32f1xx_hal_dma.c ****   while(__HAL_DMA_GET_FLAG(hdma, temp) == RESET)
 538:Drivers/STM32F1xx_HAL_Driver/Src/stm32f1xx_hal_dma.c ****   {
 539:Drivers/STM32F1xx_HAL_Driver/Src/stm32f1xx_hal_dma.c ****     if((__HAL_DMA_GET_FLAG(hdma, __HAL_DMA_GET_TE_FLAG_INDEX(hdma)) != RESET))
 540:Drivers/STM32F1xx_HAL_Driver/Src/stm32f1xx_hal_dma.c ****     {
 541:Drivers/STM32F1xx_HAL_Driver/Src/stm32f1xx_hal_dma.c ****       /* When a DMA transfer error occurs */
 542:Drivers/STM32F1xx_HAL_Driver/Src/stm32f1xx_hal_dma.c ****       /* A hardware clear of its EN bits is performed */
 543:Drivers/STM32F1xx_HAL_Driver/Src/stm32f1xx_hal_dma.c ****       /* Clear all flags */
 544:Drivers/STM32F1xx_HAL_Driver/Src/stm32f1xx_hal_dma.c ****       hdma->DmaBaseAddress->IFCR = (DMA_ISR_GIF1 << hdma->ChannelIndex);
 545:Drivers/STM32F1xx_HAL_Driver/Src/stm32f1xx_hal_dma.c **** 
ARM GAS  /tmp/cc2tQgYP.s 			page 11


 546:Drivers/STM32F1xx_HAL_Driver/Src/stm32f1xx_hal_dma.c ****       /* Update error code */
 547:Drivers/STM32F1xx_HAL_Driver/Src/stm32f1xx_hal_dma.c ****       SET_BIT(hdma->ErrorCode, HAL_DMA_ERROR_TE);
 548:Drivers/STM32F1xx_HAL_Driver/Src/stm32f1xx_hal_dma.c **** 
 549:Drivers/STM32F1xx_HAL_Driver/Src/stm32f1xx_hal_dma.c ****       /* Change the DMA state */
 550:Drivers/STM32F1xx_HAL_Driver/Src/stm32f1xx_hal_dma.c ****       hdma->State= HAL_DMA_STATE_READY;
 551:Drivers/STM32F1xx_HAL_Driver/Src/stm32f1xx_hal_dma.c **** 
 552:Drivers/STM32F1xx_HAL_Driver/Src/stm32f1xx_hal_dma.c ****       /* Process Unlocked */
 553:Drivers/STM32F1xx_HAL_Driver/Src/stm32f1xx_hal_dma.c ****       __HAL_UNLOCK(hdma);
 554:Drivers/STM32F1xx_HAL_Driver/Src/stm32f1xx_hal_dma.c **** 
 555:Drivers/STM32F1xx_HAL_Driver/Src/stm32f1xx_hal_dma.c ****       return HAL_ERROR;
 556:Drivers/STM32F1xx_HAL_Driver/Src/stm32f1xx_hal_dma.c ****     }
 557:Drivers/STM32F1xx_HAL_Driver/Src/stm32f1xx_hal_dma.c ****     /* Check for the Timeout */
 558:Drivers/STM32F1xx_HAL_Driver/Src/stm32f1xx_hal_dma.c ****     if(Timeout != HAL_MAX_DELAY)
 559:Drivers/STM32F1xx_HAL_Driver/Src/stm32f1xx_hal_dma.c ****     {
 560:Drivers/STM32F1xx_HAL_Driver/Src/stm32f1xx_hal_dma.c ****       if((Timeout == 0U) || ((HAL_GetTick() - tickstart) > Timeout))
 561:Drivers/STM32F1xx_HAL_Driver/Src/stm32f1xx_hal_dma.c ****       {
 562:Drivers/STM32F1xx_HAL_Driver/Src/stm32f1xx_hal_dma.c ****         /* Update error code */
 563:Drivers/STM32F1xx_HAL_Driver/Src/stm32f1xx_hal_dma.c ****         SET_BIT(hdma->ErrorCode, HAL_DMA_ERROR_TIMEOUT);
 564:Drivers/STM32F1xx_HAL_Driver/Src/stm32f1xx_hal_dma.c **** 
 565:Drivers/STM32F1xx_HAL_Driver/Src/stm32f1xx_hal_dma.c ****         /* Change the DMA state */
 566:Drivers/STM32F1xx_HAL_Driver/Src/stm32f1xx_hal_dma.c ****         hdma->State = HAL_DMA_STATE_READY;
 567:Drivers/STM32F1xx_HAL_Driver/Src/stm32f1xx_hal_dma.c **** 
 568:Drivers/STM32F1xx_HAL_Driver/Src/stm32f1xx_hal_dma.c ****         /* Process Unlocked */
 569:Drivers/STM32F1xx_HAL_Driver/Src/stm32f1xx_hal_dma.c ****         __HAL_UNLOCK(hdma);
 570:Drivers/STM32F1xx_HAL_Driver/Src/stm32f1xx_hal_dma.c **** 
 571:Drivers/STM32F1xx_HAL_Driver/Src/stm32f1xx_hal_dma.c ****         return HAL_ERROR;
 572:Drivers/STM32F1xx_HAL_Driver/Src/stm32f1xx_hal_dma.c ****       }
 573:Drivers/STM32F1xx_HAL_Driver/Src/stm32f1xx_hal_dma.c ****     }
 574:Drivers/STM32F1xx_HAL_Driver/Src/stm32f1xx_hal_dma.c ****   }
 575:Drivers/STM32F1xx_HAL_Driver/Src/stm32f1xx_hal_dma.c **** 
 576:Drivers/STM32F1xx_HAL_Driver/Src/stm32f1xx_hal_dma.c ****   if(CompleteLevel == HAL_DMA_FULL_TRANSFER)
 577:Drivers/STM32F1xx_HAL_Driver/Src/stm32f1xx_hal_dma.c ****   {
 578:Drivers/STM32F1xx_HAL_Driver/Src/stm32f1xx_hal_dma.c ****     /* Clear the transfer complete flag */
 579:Drivers/STM32F1xx_HAL_Driver/Src/stm32f1xx_hal_dma.c ****     __HAL_DMA_CLEAR_FLAG(hdma, __HAL_DMA_GET_TC_FLAG_INDEX(hdma));
 580:Drivers/STM32F1xx_HAL_Driver/Src/stm32f1xx_hal_dma.c **** 
 581:Drivers/STM32F1xx_HAL_Driver/Src/stm32f1xx_hal_dma.c ****     /* The selected Channelx EN bit is cleared (DMA is disabled and
 582:Drivers/STM32F1xx_HAL_Driver/Src/stm32f1xx_hal_dma.c ****     all transfers are complete) */
 583:Drivers/STM32F1xx_HAL_Driver/Src/stm32f1xx_hal_dma.c ****     hdma->State = HAL_DMA_STATE_READY;
 584:Drivers/STM32F1xx_HAL_Driver/Src/stm32f1xx_hal_dma.c ****   }
 585:Drivers/STM32F1xx_HAL_Driver/Src/stm32f1xx_hal_dma.c ****   else
 586:Drivers/STM32F1xx_HAL_Driver/Src/stm32f1xx_hal_dma.c ****   {
 587:Drivers/STM32F1xx_HAL_Driver/Src/stm32f1xx_hal_dma.c ****     /* Clear the half transfer complete flag */
 588:Drivers/STM32F1xx_HAL_Driver/Src/stm32f1xx_hal_dma.c ****     __HAL_DMA_CLEAR_FLAG(hdma, __HAL_DMA_GET_HT_FLAG_INDEX(hdma));
 589:Drivers/STM32F1xx_HAL_Driver/Src/stm32f1xx_hal_dma.c ****   }
 590:Drivers/STM32F1xx_HAL_Driver/Src/stm32f1xx_hal_dma.c ****   
 591:Drivers/STM32F1xx_HAL_Driver/Src/stm32f1xx_hal_dma.c ****   /* Process unlocked */
 592:Drivers/STM32F1xx_HAL_Driver/Src/stm32f1xx_hal_dma.c ****   __HAL_UNLOCK(hdma);
 593:Drivers/STM32F1xx_HAL_Driver/Src/stm32f1xx_hal_dma.c **** 
 594:Drivers/STM32F1xx_HAL_Driver/Src/stm32f1xx_hal_dma.c ****   return HAL_OK;
 595:Drivers/STM32F1xx_HAL_Driver/Src/stm32f1xx_hal_dma.c **** }
 596:Drivers/STM32F1xx_HAL_Driver/Src/stm32f1xx_hal_dma.c **** 
 597:Drivers/STM32F1xx_HAL_Driver/Src/stm32f1xx_hal_dma.c **** /**
 598:Drivers/STM32F1xx_HAL_Driver/Src/stm32f1xx_hal_dma.c ****   * @brief  Handles DMA interrupt request.
 599:Drivers/STM32F1xx_HAL_Driver/Src/stm32f1xx_hal_dma.c ****   * @param  hdma: pointer to a DMA_HandleTypeDef structure that contains
 600:Drivers/STM32F1xx_HAL_Driver/Src/stm32f1xx_hal_dma.c ****   *               the configuration information for the specified DMA Channel.  
 601:Drivers/STM32F1xx_HAL_Driver/Src/stm32f1xx_hal_dma.c ****   * @retval None
 602:Drivers/STM32F1xx_HAL_Driver/Src/stm32f1xx_hal_dma.c ****   */
ARM GAS  /tmp/cc2tQgYP.s 			page 12


 603:Drivers/STM32F1xx_HAL_Driver/Src/stm32f1xx_hal_dma.c **** void HAL_DMA_IRQHandler(DMA_HandleTypeDef *hdma)
 604:Drivers/STM32F1xx_HAL_Driver/Src/stm32f1xx_hal_dma.c **** {
 605:Drivers/STM32F1xx_HAL_Driver/Src/stm32f1xx_hal_dma.c ****   uint32_t flag_it = hdma->DmaBaseAddress->ISR;
 606:Drivers/STM32F1xx_HAL_Driver/Src/stm32f1xx_hal_dma.c ****   uint32_t source_it = hdma->Instance->CCR;
 607:Drivers/STM32F1xx_HAL_Driver/Src/stm32f1xx_hal_dma.c ****   
 608:Drivers/STM32F1xx_HAL_Driver/Src/stm32f1xx_hal_dma.c ****   /* Half Transfer Complete Interrupt management ******************************/
 609:Drivers/STM32F1xx_HAL_Driver/Src/stm32f1xx_hal_dma.c ****   if (((flag_it & (DMA_FLAG_HT1 << hdma->ChannelIndex)) != RESET) && ((source_it & DMA_IT_HT) != RE
 610:Drivers/STM32F1xx_HAL_Driver/Src/stm32f1xx_hal_dma.c ****   {
 611:Drivers/STM32F1xx_HAL_Driver/Src/stm32f1xx_hal_dma.c ****     /* Disable the half transfer interrupt if the DMA mode is not CIRCULAR */
 612:Drivers/STM32F1xx_HAL_Driver/Src/stm32f1xx_hal_dma.c ****     if((hdma->Instance->CCR & DMA_CCR_CIRC) == 0U)
 613:Drivers/STM32F1xx_HAL_Driver/Src/stm32f1xx_hal_dma.c ****     {
 614:Drivers/STM32F1xx_HAL_Driver/Src/stm32f1xx_hal_dma.c ****       /* Disable the half transfer interrupt */
 615:Drivers/STM32F1xx_HAL_Driver/Src/stm32f1xx_hal_dma.c ****       __HAL_DMA_DISABLE_IT(hdma, DMA_IT_HT);
 616:Drivers/STM32F1xx_HAL_Driver/Src/stm32f1xx_hal_dma.c ****     }
 617:Drivers/STM32F1xx_HAL_Driver/Src/stm32f1xx_hal_dma.c ****     /* Clear the half transfer complete flag */
 618:Drivers/STM32F1xx_HAL_Driver/Src/stm32f1xx_hal_dma.c ****     __HAL_DMA_CLEAR_FLAG(hdma, __HAL_DMA_GET_HT_FLAG_INDEX(hdma));
 619:Drivers/STM32F1xx_HAL_Driver/Src/stm32f1xx_hal_dma.c **** 
 620:Drivers/STM32F1xx_HAL_Driver/Src/stm32f1xx_hal_dma.c ****     /* DMA peripheral state is not updated in Half Transfer */
 621:Drivers/STM32F1xx_HAL_Driver/Src/stm32f1xx_hal_dma.c ****     /* but in Transfer Complete case */
 622:Drivers/STM32F1xx_HAL_Driver/Src/stm32f1xx_hal_dma.c **** 
 623:Drivers/STM32F1xx_HAL_Driver/Src/stm32f1xx_hal_dma.c ****     if(hdma->XferHalfCpltCallback != NULL)
 624:Drivers/STM32F1xx_HAL_Driver/Src/stm32f1xx_hal_dma.c ****     {
 625:Drivers/STM32F1xx_HAL_Driver/Src/stm32f1xx_hal_dma.c ****       /* Half transfer callback */
 626:Drivers/STM32F1xx_HAL_Driver/Src/stm32f1xx_hal_dma.c ****       hdma->XferHalfCpltCallback(hdma);
 627:Drivers/STM32F1xx_HAL_Driver/Src/stm32f1xx_hal_dma.c ****     }
 628:Drivers/STM32F1xx_HAL_Driver/Src/stm32f1xx_hal_dma.c ****   }
 629:Drivers/STM32F1xx_HAL_Driver/Src/stm32f1xx_hal_dma.c **** 
 630:Drivers/STM32F1xx_HAL_Driver/Src/stm32f1xx_hal_dma.c ****   /* Transfer Complete Interrupt management ***********************************/
 631:Drivers/STM32F1xx_HAL_Driver/Src/stm32f1xx_hal_dma.c ****   else if (((flag_it & (DMA_FLAG_TC1 << hdma->ChannelIndex)) != RESET) && ((source_it & DMA_IT_TC) 
 632:Drivers/STM32F1xx_HAL_Driver/Src/stm32f1xx_hal_dma.c ****   {
 633:Drivers/STM32F1xx_HAL_Driver/Src/stm32f1xx_hal_dma.c ****     if((hdma->Instance->CCR & DMA_CCR_CIRC) == 0U)
 634:Drivers/STM32F1xx_HAL_Driver/Src/stm32f1xx_hal_dma.c ****     {
 635:Drivers/STM32F1xx_HAL_Driver/Src/stm32f1xx_hal_dma.c ****       /* Disable the transfer complete and error interrupt */
 636:Drivers/STM32F1xx_HAL_Driver/Src/stm32f1xx_hal_dma.c ****       __HAL_DMA_DISABLE_IT(hdma, DMA_IT_TE | DMA_IT_TC);  
 637:Drivers/STM32F1xx_HAL_Driver/Src/stm32f1xx_hal_dma.c **** 
 638:Drivers/STM32F1xx_HAL_Driver/Src/stm32f1xx_hal_dma.c ****       /* Change the DMA state */
 639:Drivers/STM32F1xx_HAL_Driver/Src/stm32f1xx_hal_dma.c ****       hdma->State = HAL_DMA_STATE_READY;
 640:Drivers/STM32F1xx_HAL_Driver/Src/stm32f1xx_hal_dma.c ****     }
 641:Drivers/STM32F1xx_HAL_Driver/Src/stm32f1xx_hal_dma.c ****     /* Clear the transfer complete flag */
 642:Drivers/STM32F1xx_HAL_Driver/Src/stm32f1xx_hal_dma.c ****       __HAL_DMA_CLEAR_FLAG(hdma, __HAL_DMA_GET_TC_FLAG_INDEX(hdma));
 643:Drivers/STM32F1xx_HAL_Driver/Src/stm32f1xx_hal_dma.c **** 
 644:Drivers/STM32F1xx_HAL_Driver/Src/stm32f1xx_hal_dma.c ****     /* Process Unlocked */
 645:Drivers/STM32F1xx_HAL_Driver/Src/stm32f1xx_hal_dma.c ****     __HAL_UNLOCK(hdma);
 646:Drivers/STM32F1xx_HAL_Driver/Src/stm32f1xx_hal_dma.c **** 
 647:Drivers/STM32F1xx_HAL_Driver/Src/stm32f1xx_hal_dma.c ****     if(hdma->XferCpltCallback != NULL)
 648:Drivers/STM32F1xx_HAL_Driver/Src/stm32f1xx_hal_dma.c ****     {
 649:Drivers/STM32F1xx_HAL_Driver/Src/stm32f1xx_hal_dma.c ****       /* Transfer complete callback */
 650:Drivers/STM32F1xx_HAL_Driver/Src/stm32f1xx_hal_dma.c ****       hdma->XferCpltCallback(hdma);
 651:Drivers/STM32F1xx_HAL_Driver/Src/stm32f1xx_hal_dma.c ****     }
 652:Drivers/STM32F1xx_HAL_Driver/Src/stm32f1xx_hal_dma.c ****   }
 653:Drivers/STM32F1xx_HAL_Driver/Src/stm32f1xx_hal_dma.c **** 
 654:Drivers/STM32F1xx_HAL_Driver/Src/stm32f1xx_hal_dma.c ****   /* Transfer Error Interrupt management **************************************/
 655:Drivers/STM32F1xx_HAL_Driver/Src/stm32f1xx_hal_dma.c ****   else if (( RESET != (flag_it & (DMA_FLAG_TE1 << hdma->ChannelIndex))) && (RESET != (source_it & D
 656:Drivers/STM32F1xx_HAL_Driver/Src/stm32f1xx_hal_dma.c ****   {
 657:Drivers/STM32F1xx_HAL_Driver/Src/stm32f1xx_hal_dma.c ****     /* When a DMA transfer error occurs */
 658:Drivers/STM32F1xx_HAL_Driver/Src/stm32f1xx_hal_dma.c ****     /* A hardware clear of its EN bits is performed */
 659:Drivers/STM32F1xx_HAL_Driver/Src/stm32f1xx_hal_dma.c ****     /* Disable ALL DMA IT */
ARM GAS  /tmp/cc2tQgYP.s 			page 13


 660:Drivers/STM32F1xx_HAL_Driver/Src/stm32f1xx_hal_dma.c ****     __HAL_DMA_DISABLE_IT(hdma, (DMA_IT_TC | DMA_IT_HT | DMA_IT_TE));
 661:Drivers/STM32F1xx_HAL_Driver/Src/stm32f1xx_hal_dma.c **** 
 662:Drivers/STM32F1xx_HAL_Driver/Src/stm32f1xx_hal_dma.c ****     /* Clear all flags */
 663:Drivers/STM32F1xx_HAL_Driver/Src/stm32f1xx_hal_dma.c ****     hdma->DmaBaseAddress->IFCR = (DMA_ISR_GIF1 << hdma->ChannelIndex);
 664:Drivers/STM32F1xx_HAL_Driver/Src/stm32f1xx_hal_dma.c **** 
 665:Drivers/STM32F1xx_HAL_Driver/Src/stm32f1xx_hal_dma.c ****     /* Update error code */
 666:Drivers/STM32F1xx_HAL_Driver/Src/stm32f1xx_hal_dma.c ****     hdma->ErrorCode = HAL_DMA_ERROR_TE;
 667:Drivers/STM32F1xx_HAL_Driver/Src/stm32f1xx_hal_dma.c **** 
 668:Drivers/STM32F1xx_HAL_Driver/Src/stm32f1xx_hal_dma.c ****     /* Change the DMA state */
 669:Drivers/STM32F1xx_HAL_Driver/Src/stm32f1xx_hal_dma.c ****     hdma->State = HAL_DMA_STATE_READY;
 670:Drivers/STM32F1xx_HAL_Driver/Src/stm32f1xx_hal_dma.c **** 
 671:Drivers/STM32F1xx_HAL_Driver/Src/stm32f1xx_hal_dma.c ****     /* Process Unlocked */
 672:Drivers/STM32F1xx_HAL_Driver/Src/stm32f1xx_hal_dma.c ****     __HAL_UNLOCK(hdma);
 673:Drivers/STM32F1xx_HAL_Driver/Src/stm32f1xx_hal_dma.c **** 
 674:Drivers/STM32F1xx_HAL_Driver/Src/stm32f1xx_hal_dma.c ****     if (hdma->XferErrorCallback != NULL)
 675:Drivers/STM32F1xx_HAL_Driver/Src/stm32f1xx_hal_dma.c ****     {
 676:Drivers/STM32F1xx_HAL_Driver/Src/stm32f1xx_hal_dma.c ****       /* Transfer error callback */
 677:Drivers/STM32F1xx_HAL_Driver/Src/stm32f1xx_hal_dma.c ****       hdma->XferErrorCallback(hdma);
 678:Drivers/STM32F1xx_HAL_Driver/Src/stm32f1xx_hal_dma.c ****     }
 679:Drivers/STM32F1xx_HAL_Driver/Src/stm32f1xx_hal_dma.c ****   }
 680:Drivers/STM32F1xx_HAL_Driver/Src/stm32f1xx_hal_dma.c ****   return;
 681:Drivers/STM32F1xx_HAL_Driver/Src/stm32f1xx_hal_dma.c **** }
 682:Drivers/STM32F1xx_HAL_Driver/Src/stm32f1xx_hal_dma.c **** 
 683:Drivers/STM32F1xx_HAL_Driver/Src/stm32f1xx_hal_dma.c **** /**
 684:Drivers/STM32F1xx_HAL_Driver/Src/stm32f1xx_hal_dma.c ****   * @brief Register callbacks
 685:Drivers/STM32F1xx_HAL_Driver/Src/stm32f1xx_hal_dma.c ****   * @param hdma: pointer to a DMA_HandleTypeDef structure that contains
 686:Drivers/STM32F1xx_HAL_Driver/Src/stm32f1xx_hal_dma.c ****   *              the configuration information for the specified DMA Channel.
 687:Drivers/STM32F1xx_HAL_Driver/Src/stm32f1xx_hal_dma.c ****   * @param CallbackID: User Callback identifer
 688:Drivers/STM32F1xx_HAL_Driver/Src/stm32f1xx_hal_dma.c ****   *                    a HAL_DMA_CallbackIDTypeDef ENUM as parameter.
 689:Drivers/STM32F1xx_HAL_Driver/Src/stm32f1xx_hal_dma.c ****   * @param pCallback: pointer to private callbacsk function which has pointer to 
 690:Drivers/STM32F1xx_HAL_Driver/Src/stm32f1xx_hal_dma.c ****   *                   a DMA_HandleTypeDef structure as parameter.
 691:Drivers/STM32F1xx_HAL_Driver/Src/stm32f1xx_hal_dma.c ****   * @retval HAL status
 692:Drivers/STM32F1xx_HAL_Driver/Src/stm32f1xx_hal_dma.c ****   */                          
 693:Drivers/STM32F1xx_HAL_Driver/Src/stm32f1xx_hal_dma.c **** HAL_StatusTypeDef HAL_DMA_RegisterCallback(DMA_HandleTypeDef *hdma, HAL_DMA_CallbackIDTypeDef Callb
 694:Drivers/STM32F1xx_HAL_Driver/Src/stm32f1xx_hal_dma.c **** {
 695:Drivers/STM32F1xx_HAL_Driver/Src/stm32f1xx_hal_dma.c ****   HAL_StatusTypeDef status = HAL_OK;
 696:Drivers/STM32F1xx_HAL_Driver/Src/stm32f1xx_hal_dma.c ****   
 697:Drivers/STM32F1xx_HAL_Driver/Src/stm32f1xx_hal_dma.c ****   /* Process locked */
 698:Drivers/STM32F1xx_HAL_Driver/Src/stm32f1xx_hal_dma.c ****   __HAL_LOCK(hdma);
 699:Drivers/STM32F1xx_HAL_Driver/Src/stm32f1xx_hal_dma.c ****   
 700:Drivers/STM32F1xx_HAL_Driver/Src/stm32f1xx_hal_dma.c ****   if(HAL_DMA_STATE_READY == hdma->State)
 701:Drivers/STM32F1xx_HAL_Driver/Src/stm32f1xx_hal_dma.c ****   {
 702:Drivers/STM32F1xx_HAL_Driver/Src/stm32f1xx_hal_dma.c ****     switch (CallbackID)
 703:Drivers/STM32F1xx_HAL_Driver/Src/stm32f1xx_hal_dma.c ****     {
 704:Drivers/STM32F1xx_HAL_Driver/Src/stm32f1xx_hal_dma.c ****     case  HAL_DMA_XFER_CPLT_CB_ID:
 705:Drivers/STM32F1xx_HAL_Driver/Src/stm32f1xx_hal_dma.c ****       hdma->XferCpltCallback = pCallback;
 706:Drivers/STM32F1xx_HAL_Driver/Src/stm32f1xx_hal_dma.c ****       break;
 707:Drivers/STM32F1xx_HAL_Driver/Src/stm32f1xx_hal_dma.c ****       
 708:Drivers/STM32F1xx_HAL_Driver/Src/stm32f1xx_hal_dma.c ****     case  HAL_DMA_XFER_HALFCPLT_CB_ID:
 709:Drivers/STM32F1xx_HAL_Driver/Src/stm32f1xx_hal_dma.c ****       hdma->XferHalfCpltCallback = pCallback;
 710:Drivers/STM32F1xx_HAL_Driver/Src/stm32f1xx_hal_dma.c ****       break;         
 711:Drivers/STM32F1xx_HAL_Driver/Src/stm32f1xx_hal_dma.c **** 
 712:Drivers/STM32F1xx_HAL_Driver/Src/stm32f1xx_hal_dma.c ****     case  HAL_DMA_XFER_ERROR_CB_ID:
 713:Drivers/STM32F1xx_HAL_Driver/Src/stm32f1xx_hal_dma.c ****       hdma->XferErrorCallback = pCallback;
 714:Drivers/STM32F1xx_HAL_Driver/Src/stm32f1xx_hal_dma.c ****       break;         
 715:Drivers/STM32F1xx_HAL_Driver/Src/stm32f1xx_hal_dma.c ****       
 716:Drivers/STM32F1xx_HAL_Driver/Src/stm32f1xx_hal_dma.c ****     case  HAL_DMA_XFER_ABORT_CB_ID:
ARM GAS  /tmp/cc2tQgYP.s 			page 14


 717:Drivers/STM32F1xx_HAL_Driver/Src/stm32f1xx_hal_dma.c ****       hdma->XferAbortCallback = pCallback;
 718:Drivers/STM32F1xx_HAL_Driver/Src/stm32f1xx_hal_dma.c ****       break; 
 719:Drivers/STM32F1xx_HAL_Driver/Src/stm32f1xx_hal_dma.c ****       
 720:Drivers/STM32F1xx_HAL_Driver/Src/stm32f1xx_hal_dma.c ****     default:
 721:Drivers/STM32F1xx_HAL_Driver/Src/stm32f1xx_hal_dma.c ****       status = HAL_ERROR;
 722:Drivers/STM32F1xx_HAL_Driver/Src/stm32f1xx_hal_dma.c ****       break;                                                            
 723:Drivers/STM32F1xx_HAL_Driver/Src/stm32f1xx_hal_dma.c ****     }
 724:Drivers/STM32F1xx_HAL_Driver/Src/stm32f1xx_hal_dma.c ****   }
 725:Drivers/STM32F1xx_HAL_Driver/Src/stm32f1xx_hal_dma.c ****   else
 726:Drivers/STM32F1xx_HAL_Driver/Src/stm32f1xx_hal_dma.c ****   {
 727:Drivers/STM32F1xx_HAL_Driver/Src/stm32f1xx_hal_dma.c ****     status = HAL_ERROR;
 728:Drivers/STM32F1xx_HAL_Driver/Src/stm32f1xx_hal_dma.c ****   } 
 729:Drivers/STM32F1xx_HAL_Driver/Src/stm32f1xx_hal_dma.c ****   
 730:Drivers/STM32F1xx_HAL_Driver/Src/stm32f1xx_hal_dma.c ****   /* Release Lock */
 731:Drivers/STM32F1xx_HAL_Driver/Src/stm32f1xx_hal_dma.c ****   __HAL_UNLOCK(hdma);
 732:Drivers/STM32F1xx_HAL_Driver/Src/stm32f1xx_hal_dma.c ****   
 733:Drivers/STM32F1xx_HAL_Driver/Src/stm32f1xx_hal_dma.c ****   return status;
 734:Drivers/STM32F1xx_HAL_Driver/Src/stm32f1xx_hal_dma.c **** }
 735:Drivers/STM32F1xx_HAL_Driver/Src/stm32f1xx_hal_dma.c **** 
 736:Drivers/STM32F1xx_HAL_Driver/Src/stm32f1xx_hal_dma.c **** /**
 737:Drivers/STM32F1xx_HAL_Driver/Src/stm32f1xx_hal_dma.c ****   * @brief UnRegister callbacks
 738:Drivers/STM32F1xx_HAL_Driver/Src/stm32f1xx_hal_dma.c ****   * @param hdma: pointer to a DMA_HandleTypeDef structure that contains
 739:Drivers/STM32F1xx_HAL_Driver/Src/stm32f1xx_hal_dma.c ****   *              the configuration information for the specified DMA Channel.
 740:Drivers/STM32F1xx_HAL_Driver/Src/stm32f1xx_hal_dma.c ****   * @param CallbackID: User Callback identifer
 741:Drivers/STM32F1xx_HAL_Driver/Src/stm32f1xx_hal_dma.c ****   *                    a HAL_DMA_CallbackIDTypeDef ENUM as parameter.
 742:Drivers/STM32F1xx_HAL_Driver/Src/stm32f1xx_hal_dma.c ****   * @retval HAL status
 743:Drivers/STM32F1xx_HAL_Driver/Src/stm32f1xx_hal_dma.c ****   */              
 744:Drivers/STM32F1xx_HAL_Driver/Src/stm32f1xx_hal_dma.c **** HAL_StatusTypeDef HAL_DMA_UnRegisterCallback(DMA_HandleTypeDef *hdma, HAL_DMA_CallbackIDTypeDef Cal
 745:Drivers/STM32F1xx_HAL_Driver/Src/stm32f1xx_hal_dma.c **** {
 746:Drivers/STM32F1xx_HAL_Driver/Src/stm32f1xx_hal_dma.c ****   HAL_StatusTypeDef status = HAL_OK;
 747:Drivers/STM32F1xx_HAL_Driver/Src/stm32f1xx_hal_dma.c **** 
 748:Drivers/STM32F1xx_HAL_Driver/Src/stm32f1xx_hal_dma.c ****   /* Process locked */
 749:Drivers/STM32F1xx_HAL_Driver/Src/stm32f1xx_hal_dma.c ****   __HAL_LOCK(hdma);
 750:Drivers/STM32F1xx_HAL_Driver/Src/stm32f1xx_hal_dma.c ****   
 751:Drivers/STM32F1xx_HAL_Driver/Src/stm32f1xx_hal_dma.c ****   if(HAL_DMA_STATE_READY == hdma->State)
 752:Drivers/STM32F1xx_HAL_Driver/Src/stm32f1xx_hal_dma.c ****   {
 753:Drivers/STM32F1xx_HAL_Driver/Src/stm32f1xx_hal_dma.c ****     switch (CallbackID)
 754:Drivers/STM32F1xx_HAL_Driver/Src/stm32f1xx_hal_dma.c ****     {
 755:Drivers/STM32F1xx_HAL_Driver/Src/stm32f1xx_hal_dma.c ****     case  HAL_DMA_XFER_CPLT_CB_ID:
 756:Drivers/STM32F1xx_HAL_Driver/Src/stm32f1xx_hal_dma.c ****       hdma->XferCpltCallback = NULL;
 757:Drivers/STM32F1xx_HAL_Driver/Src/stm32f1xx_hal_dma.c ****       break;
 758:Drivers/STM32F1xx_HAL_Driver/Src/stm32f1xx_hal_dma.c **** 
 759:Drivers/STM32F1xx_HAL_Driver/Src/stm32f1xx_hal_dma.c ****     case  HAL_DMA_XFER_HALFCPLT_CB_ID:
 760:Drivers/STM32F1xx_HAL_Driver/Src/stm32f1xx_hal_dma.c ****       hdma->XferHalfCpltCallback = NULL;
 761:Drivers/STM32F1xx_HAL_Driver/Src/stm32f1xx_hal_dma.c ****       break;         
 762:Drivers/STM32F1xx_HAL_Driver/Src/stm32f1xx_hal_dma.c **** 
 763:Drivers/STM32F1xx_HAL_Driver/Src/stm32f1xx_hal_dma.c ****     case  HAL_DMA_XFER_ERROR_CB_ID:
 764:Drivers/STM32F1xx_HAL_Driver/Src/stm32f1xx_hal_dma.c ****       hdma->XferErrorCallback = NULL;
 765:Drivers/STM32F1xx_HAL_Driver/Src/stm32f1xx_hal_dma.c ****       break;         
 766:Drivers/STM32F1xx_HAL_Driver/Src/stm32f1xx_hal_dma.c **** 
 767:Drivers/STM32F1xx_HAL_Driver/Src/stm32f1xx_hal_dma.c ****     case  HAL_DMA_XFER_ABORT_CB_ID:
 768:Drivers/STM32F1xx_HAL_Driver/Src/stm32f1xx_hal_dma.c ****       hdma->XferAbortCallback = NULL;
 769:Drivers/STM32F1xx_HAL_Driver/Src/stm32f1xx_hal_dma.c ****       break; 
 770:Drivers/STM32F1xx_HAL_Driver/Src/stm32f1xx_hal_dma.c **** 
 771:Drivers/STM32F1xx_HAL_Driver/Src/stm32f1xx_hal_dma.c ****     case   HAL_DMA_XFER_ALL_CB_ID:
 772:Drivers/STM32F1xx_HAL_Driver/Src/stm32f1xx_hal_dma.c ****       hdma->XferCpltCallback = NULL;
 773:Drivers/STM32F1xx_HAL_Driver/Src/stm32f1xx_hal_dma.c ****       hdma->XferHalfCpltCallback = NULL;
ARM GAS  /tmp/cc2tQgYP.s 			page 15


 774:Drivers/STM32F1xx_HAL_Driver/Src/stm32f1xx_hal_dma.c ****       hdma->XferErrorCallback = NULL;
 775:Drivers/STM32F1xx_HAL_Driver/Src/stm32f1xx_hal_dma.c ****       hdma->XferAbortCallback = NULL;
 776:Drivers/STM32F1xx_HAL_Driver/Src/stm32f1xx_hal_dma.c ****       break; 
 777:Drivers/STM32F1xx_HAL_Driver/Src/stm32f1xx_hal_dma.c **** 
 778:Drivers/STM32F1xx_HAL_Driver/Src/stm32f1xx_hal_dma.c ****     default:
 779:Drivers/STM32F1xx_HAL_Driver/Src/stm32f1xx_hal_dma.c ****       status = HAL_ERROR;
 780:Drivers/STM32F1xx_HAL_Driver/Src/stm32f1xx_hal_dma.c ****       break;
 781:Drivers/STM32F1xx_HAL_Driver/Src/stm32f1xx_hal_dma.c ****     }
 782:Drivers/STM32F1xx_HAL_Driver/Src/stm32f1xx_hal_dma.c ****   }
 783:Drivers/STM32F1xx_HAL_Driver/Src/stm32f1xx_hal_dma.c ****   else
 784:Drivers/STM32F1xx_HAL_Driver/Src/stm32f1xx_hal_dma.c ****   {
 785:Drivers/STM32F1xx_HAL_Driver/Src/stm32f1xx_hal_dma.c ****     status = HAL_ERROR;
 786:Drivers/STM32F1xx_HAL_Driver/Src/stm32f1xx_hal_dma.c ****   } 
 787:Drivers/STM32F1xx_HAL_Driver/Src/stm32f1xx_hal_dma.c ****   
 788:Drivers/STM32F1xx_HAL_Driver/Src/stm32f1xx_hal_dma.c ****   /* Release Lock */
 789:Drivers/STM32F1xx_HAL_Driver/Src/stm32f1xx_hal_dma.c ****   __HAL_UNLOCK(hdma);
 790:Drivers/STM32F1xx_HAL_Driver/Src/stm32f1xx_hal_dma.c ****   
 791:Drivers/STM32F1xx_HAL_Driver/Src/stm32f1xx_hal_dma.c ****   return status;
 792:Drivers/STM32F1xx_HAL_Driver/Src/stm32f1xx_hal_dma.c **** }
 793:Drivers/STM32F1xx_HAL_Driver/Src/stm32f1xx_hal_dma.c ****   
 794:Drivers/STM32F1xx_HAL_Driver/Src/stm32f1xx_hal_dma.c **** /**
 795:Drivers/STM32F1xx_HAL_Driver/Src/stm32f1xx_hal_dma.c ****   * @}
 796:Drivers/STM32F1xx_HAL_Driver/Src/stm32f1xx_hal_dma.c ****   */
 797:Drivers/STM32F1xx_HAL_Driver/Src/stm32f1xx_hal_dma.c **** 
 798:Drivers/STM32F1xx_HAL_Driver/Src/stm32f1xx_hal_dma.c **** /** @defgroup DMA_Exported_Functions_Group3 Peripheral State and Errors functions
 799:Drivers/STM32F1xx_HAL_Driver/Src/stm32f1xx_hal_dma.c ****   *  @brief    Peripheral State and Errors functions
 800:Drivers/STM32F1xx_HAL_Driver/Src/stm32f1xx_hal_dma.c ****   *
 801:Drivers/STM32F1xx_HAL_Driver/Src/stm32f1xx_hal_dma.c **** @verbatim
 802:Drivers/STM32F1xx_HAL_Driver/Src/stm32f1xx_hal_dma.c ****  ===============================================================================
 803:Drivers/STM32F1xx_HAL_Driver/Src/stm32f1xx_hal_dma.c ****             ##### Peripheral State and Errors functions #####
 804:Drivers/STM32F1xx_HAL_Driver/Src/stm32f1xx_hal_dma.c ****  ===============================================================================  
 805:Drivers/STM32F1xx_HAL_Driver/Src/stm32f1xx_hal_dma.c ****     [..]
 806:Drivers/STM32F1xx_HAL_Driver/Src/stm32f1xx_hal_dma.c ****     This subsection provides functions allowing to
 807:Drivers/STM32F1xx_HAL_Driver/Src/stm32f1xx_hal_dma.c ****       (+) Check the DMA state
 808:Drivers/STM32F1xx_HAL_Driver/Src/stm32f1xx_hal_dma.c ****       (+) Get error code
 809:Drivers/STM32F1xx_HAL_Driver/Src/stm32f1xx_hal_dma.c **** 
 810:Drivers/STM32F1xx_HAL_Driver/Src/stm32f1xx_hal_dma.c **** @endverbatim
 811:Drivers/STM32F1xx_HAL_Driver/Src/stm32f1xx_hal_dma.c ****   * @{
 812:Drivers/STM32F1xx_HAL_Driver/Src/stm32f1xx_hal_dma.c ****   */
 813:Drivers/STM32F1xx_HAL_Driver/Src/stm32f1xx_hal_dma.c **** 
 814:Drivers/STM32F1xx_HAL_Driver/Src/stm32f1xx_hal_dma.c **** /**
 815:Drivers/STM32F1xx_HAL_Driver/Src/stm32f1xx_hal_dma.c ****   * @brief  Return the DMA hande state.
 816:Drivers/STM32F1xx_HAL_Driver/Src/stm32f1xx_hal_dma.c ****   * @param  hdma: pointer to a DMA_HandleTypeDef structure that contains
 817:Drivers/STM32F1xx_HAL_Driver/Src/stm32f1xx_hal_dma.c ****   *               the configuration information for the specified DMA Channel.
 818:Drivers/STM32F1xx_HAL_Driver/Src/stm32f1xx_hal_dma.c ****   * @retval HAL state
 819:Drivers/STM32F1xx_HAL_Driver/Src/stm32f1xx_hal_dma.c ****   */
 820:Drivers/STM32F1xx_HAL_Driver/Src/stm32f1xx_hal_dma.c **** HAL_DMA_StateTypeDef HAL_DMA_GetState(DMA_HandleTypeDef *hdma)
 821:Drivers/STM32F1xx_HAL_Driver/Src/stm32f1xx_hal_dma.c **** {
 822:Drivers/STM32F1xx_HAL_Driver/Src/stm32f1xx_hal_dma.c ****   /* Return DMA handle state */
 823:Drivers/STM32F1xx_HAL_Driver/Src/stm32f1xx_hal_dma.c ****   return hdma->State;
 824:Drivers/STM32F1xx_HAL_Driver/Src/stm32f1xx_hal_dma.c **** }
 825:Drivers/STM32F1xx_HAL_Driver/Src/stm32f1xx_hal_dma.c **** 
 826:Drivers/STM32F1xx_HAL_Driver/Src/stm32f1xx_hal_dma.c **** /**
 827:Drivers/STM32F1xx_HAL_Driver/Src/stm32f1xx_hal_dma.c ****   * @brief  Return the DMA error code.
 828:Drivers/STM32F1xx_HAL_Driver/Src/stm32f1xx_hal_dma.c ****   * @param  hdma : pointer to a DMA_HandleTypeDef structure that contains
 829:Drivers/STM32F1xx_HAL_Driver/Src/stm32f1xx_hal_dma.c ****   *              the configuration information for the specified DMA Channel.
 830:Drivers/STM32F1xx_HAL_Driver/Src/stm32f1xx_hal_dma.c ****   * @retval DMA Error Code
ARM GAS  /tmp/cc2tQgYP.s 			page 16


 831:Drivers/STM32F1xx_HAL_Driver/Src/stm32f1xx_hal_dma.c ****   */
 832:Drivers/STM32F1xx_HAL_Driver/Src/stm32f1xx_hal_dma.c **** uint32_t HAL_DMA_GetError(DMA_HandleTypeDef *hdma)
 833:Drivers/STM32F1xx_HAL_Driver/Src/stm32f1xx_hal_dma.c **** {
 834:Drivers/STM32F1xx_HAL_Driver/Src/stm32f1xx_hal_dma.c ****   return hdma->ErrorCode;
 835:Drivers/STM32F1xx_HAL_Driver/Src/stm32f1xx_hal_dma.c **** }
 836:Drivers/STM32F1xx_HAL_Driver/Src/stm32f1xx_hal_dma.c **** 
 837:Drivers/STM32F1xx_HAL_Driver/Src/stm32f1xx_hal_dma.c **** /**
 838:Drivers/STM32F1xx_HAL_Driver/Src/stm32f1xx_hal_dma.c ****   * @}
 839:Drivers/STM32F1xx_HAL_Driver/Src/stm32f1xx_hal_dma.c ****   */
 840:Drivers/STM32F1xx_HAL_Driver/Src/stm32f1xx_hal_dma.c **** 
 841:Drivers/STM32F1xx_HAL_Driver/Src/stm32f1xx_hal_dma.c **** /**
 842:Drivers/STM32F1xx_HAL_Driver/Src/stm32f1xx_hal_dma.c ****   * @}
 843:Drivers/STM32F1xx_HAL_Driver/Src/stm32f1xx_hal_dma.c ****   */
 844:Drivers/STM32F1xx_HAL_Driver/Src/stm32f1xx_hal_dma.c **** 
 845:Drivers/STM32F1xx_HAL_Driver/Src/stm32f1xx_hal_dma.c **** /** @addtogroup DMA_Private_Functions
 846:Drivers/STM32F1xx_HAL_Driver/Src/stm32f1xx_hal_dma.c ****   * @{
 847:Drivers/STM32F1xx_HAL_Driver/Src/stm32f1xx_hal_dma.c ****   */
 848:Drivers/STM32F1xx_HAL_Driver/Src/stm32f1xx_hal_dma.c **** 
 849:Drivers/STM32F1xx_HAL_Driver/Src/stm32f1xx_hal_dma.c **** /**
 850:Drivers/STM32F1xx_HAL_Driver/Src/stm32f1xx_hal_dma.c ****   * @brief  Sets the DMA Transfer parameter.
 851:Drivers/STM32F1xx_HAL_Driver/Src/stm32f1xx_hal_dma.c ****   * @param  hdma:       pointer to a DMA_HandleTypeDef structure that contains
 852:Drivers/STM32F1xx_HAL_Driver/Src/stm32f1xx_hal_dma.c ****   *                     the configuration information for the specified DMA Channel.
 853:Drivers/STM32F1xx_HAL_Driver/Src/stm32f1xx_hal_dma.c ****   * @param  SrcAddress: The source memory Buffer address
 854:Drivers/STM32F1xx_HAL_Driver/Src/stm32f1xx_hal_dma.c ****   * @param  DstAddress: The destination memory Buffer address
 855:Drivers/STM32F1xx_HAL_Driver/Src/stm32f1xx_hal_dma.c ****   * @param  DataLength: The length of data to be transferred from source to destination
 856:Drivers/STM32F1xx_HAL_Driver/Src/stm32f1xx_hal_dma.c ****   * @retval HAL status
 857:Drivers/STM32F1xx_HAL_Driver/Src/stm32f1xx_hal_dma.c ****   */
 858:Drivers/STM32F1xx_HAL_Driver/Src/stm32f1xx_hal_dma.c **** static void DMA_SetConfig(DMA_HandleTypeDef *hdma, uint32_t SrcAddress, uint32_t DstAddress, uint32
 859:Drivers/STM32F1xx_HAL_Driver/Src/stm32f1xx_hal_dma.c **** {
  27              		.loc 1 859 1 view -0
  28              		.cfi_startproc
  29              		@ args = 0, pretend = 0, frame = 0
  30              		@ frame_needed = 0, uses_anonymous_args = 0
  31              		.loc 1 859 1 is_stmt 0 view .LVU1
  32 0000 00B5     		push	{lr}
  33              	.LCFI0:
  34              		.cfi_def_cfa_offset 4
  35              		.cfi_offset 14, -4
  36 0002 8E46     		mov	lr, r1
 860:Drivers/STM32F1xx_HAL_Driver/Src/stm32f1xx_hal_dma.c ****   /* Clear all flags */
 861:Drivers/STM32F1xx_HAL_Driver/Src/stm32f1xx_hal_dma.c ****   hdma->DmaBaseAddress->IFCR = (DMA_ISR_GIF1 << hdma->ChannelIndex);
  37              		.loc 1 861 3 is_stmt 1 view .LVU2
  38              		.loc 1 861 53 is_stmt 0 view .LVU3
  39 0004 016C     		ldr	r1, [r0, #64]
  40              	.LVL1:
  41              		.loc 1 861 46 view .LVU4
  42 0006 4FF0010C 		mov	ip, #1
  43 000a 0CFA01F1 		lsl	r1, ip, r1
  44              		.loc 1 861 30 view .LVU5
  45 000e D0F83CC0 		ldr	ip, [r0, #60]
  46 0012 CCF80410 		str	r1, [ip, #4]
 862:Drivers/STM32F1xx_HAL_Driver/Src/stm32f1xx_hal_dma.c **** 
 863:Drivers/STM32F1xx_HAL_Driver/Src/stm32f1xx_hal_dma.c ****   /* Configure DMA Channel data length */
 864:Drivers/STM32F1xx_HAL_Driver/Src/stm32f1xx_hal_dma.c ****   hdma->Instance->CNDTR = DataLength;
  47              		.loc 1 864 3 is_stmt 1 view .LVU6
  48              		.loc 1 864 25 is_stmt 0 view .LVU7
  49 0016 0168     		ldr	r1, [r0]
ARM GAS  /tmp/cc2tQgYP.s 			page 17


  50 0018 4B60     		str	r3, [r1, #4]
 865:Drivers/STM32F1xx_HAL_Driver/Src/stm32f1xx_hal_dma.c **** 
 866:Drivers/STM32F1xx_HAL_Driver/Src/stm32f1xx_hal_dma.c ****   /* Memory to Peripheral */
 867:Drivers/STM32F1xx_HAL_Driver/Src/stm32f1xx_hal_dma.c ****   if((hdma->Init.Direction) == DMA_MEMORY_TO_PERIPH)
  51              		.loc 1 867 3 is_stmt 1 view .LVU8
  52              		.loc 1 867 17 is_stmt 0 view .LVU9
  53 001a 4368     		ldr	r3, [r0, #4]
  54              	.LVL2:
  55              		.loc 1 867 5 view .LVU10
  56 001c 102B     		cmp	r3, #16
  57 001e 05D0     		beq	.L5
 868:Drivers/STM32F1xx_HAL_Driver/Src/stm32f1xx_hal_dma.c ****   {
 869:Drivers/STM32F1xx_HAL_Driver/Src/stm32f1xx_hal_dma.c ****     /* Configure DMA Channel destination address */
 870:Drivers/STM32F1xx_HAL_Driver/Src/stm32f1xx_hal_dma.c ****     hdma->Instance->CPAR = DstAddress;
 871:Drivers/STM32F1xx_HAL_Driver/Src/stm32f1xx_hal_dma.c **** 
 872:Drivers/STM32F1xx_HAL_Driver/Src/stm32f1xx_hal_dma.c ****     /* Configure DMA Channel source address */
 873:Drivers/STM32F1xx_HAL_Driver/Src/stm32f1xx_hal_dma.c ****     hdma->Instance->CMAR = SrcAddress;
 874:Drivers/STM32F1xx_HAL_Driver/Src/stm32f1xx_hal_dma.c ****   }
 875:Drivers/STM32F1xx_HAL_Driver/Src/stm32f1xx_hal_dma.c ****   /* Peripheral to Memory */
 876:Drivers/STM32F1xx_HAL_Driver/Src/stm32f1xx_hal_dma.c ****   else
 877:Drivers/STM32F1xx_HAL_Driver/Src/stm32f1xx_hal_dma.c ****   {
 878:Drivers/STM32F1xx_HAL_Driver/Src/stm32f1xx_hal_dma.c ****     /* Configure DMA Channel source address */
 879:Drivers/STM32F1xx_HAL_Driver/Src/stm32f1xx_hal_dma.c ****     hdma->Instance->CPAR = SrcAddress;
  58              		.loc 1 879 5 is_stmt 1 view .LVU11
  59              		.loc 1 879 9 is_stmt 0 view .LVU12
  60 0020 0368     		ldr	r3, [r0]
  61              		.loc 1 879 26 view .LVU13
  62 0022 C3F808E0 		str	lr, [r3, #8]
  63              	.LVL3:
 880:Drivers/STM32F1xx_HAL_Driver/Src/stm32f1xx_hal_dma.c **** 
 881:Drivers/STM32F1xx_HAL_Driver/Src/stm32f1xx_hal_dma.c ****     /* Configure DMA Channel destination address */
 882:Drivers/STM32F1xx_HAL_Driver/Src/stm32f1xx_hal_dma.c ****     hdma->Instance->CMAR = DstAddress;
  64              		.loc 1 882 5 is_stmt 1 view .LVU14
  65              		.loc 1 882 9 is_stmt 0 view .LVU15
  66 0026 0368     		ldr	r3, [r0]
  67              		.loc 1 882 26 view .LVU16
  68 0028 DA60     		str	r2, [r3, #12]
  69              	.L1:
 883:Drivers/STM32F1xx_HAL_Driver/Src/stm32f1xx_hal_dma.c ****   }
 884:Drivers/STM32F1xx_HAL_Driver/Src/stm32f1xx_hal_dma.c **** }
  70              		.loc 1 884 1 view .LVU17
  71 002a 00BD     		pop	{pc}
  72              	.LVL4:
  73              	.L5:
 870:Drivers/STM32F1xx_HAL_Driver/Src/stm32f1xx_hal_dma.c **** 
  74              		.loc 1 870 5 is_stmt 1 view .LVU18
 870:Drivers/STM32F1xx_HAL_Driver/Src/stm32f1xx_hal_dma.c **** 
  75              		.loc 1 870 9 is_stmt 0 view .LVU19
  76 002c 0368     		ldr	r3, [r0]
 870:Drivers/STM32F1xx_HAL_Driver/Src/stm32f1xx_hal_dma.c **** 
  77              		.loc 1 870 26 view .LVU20
  78 002e 9A60     		str	r2, [r3, #8]
  79              	.LVL5:
 873:Drivers/STM32F1xx_HAL_Driver/Src/stm32f1xx_hal_dma.c ****   }
  80              		.loc 1 873 5 is_stmt 1 view .LVU21
 873:Drivers/STM32F1xx_HAL_Driver/Src/stm32f1xx_hal_dma.c ****   }
  81              		.loc 1 873 9 is_stmt 0 view .LVU22
ARM GAS  /tmp/cc2tQgYP.s 			page 18


  82 0030 0368     		ldr	r3, [r0]
 873:Drivers/STM32F1xx_HAL_Driver/Src/stm32f1xx_hal_dma.c ****   }
  83              		.loc 1 873 26 view .LVU23
  84 0032 C3F80CE0 		str	lr, [r3, #12]
  85 0036 F8E7     		b	.L1
  86              		.cfi_endproc
  87              	.LFE77:
  89              		.section	.text.HAL_DMA_Init,"ax",%progbits
  90              		.align	1
  91              		.global	HAL_DMA_Init
  92              		.syntax unified
  93              		.thumb
  94              		.thumb_func
  96              	HAL_DMA_Init:
  97              	.LVL6:
  98              	.LFB65:
 144:Drivers/STM32F1xx_HAL_Driver/Src/stm32f1xx_hal_dma.c ****   uint32_t tmp = 0U;
  99              		.loc 1 144 1 is_stmt 1 view -0
 100              		.cfi_startproc
 101              		@ args = 0, pretend = 0, frame = 0
 102              		@ frame_needed = 0, uses_anonymous_args = 0
 103              		@ link register save eliminated.
 145:Drivers/STM32F1xx_HAL_Driver/Src/stm32f1xx_hal_dma.c **** 
 104              		.loc 1 145 3 view .LVU25
 148:Drivers/STM32F1xx_HAL_Driver/Src/stm32f1xx_hal_dma.c ****   {
 105              		.loc 1 148 3 view .LVU26
 148:Drivers/STM32F1xx_HAL_Driver/Src/stm32f1xx_hal_dma.c ****   {
 106              		.loc 1 148 5 is_stmt 0 view .LVU27
 107 0000 50B3     		cbz	r0, .L8
 144:Drivers/STM32F1xx_HAL_Driver/Src/stm32f1xx_hal_dma.c ****   uint32_t tmp = 0U;
 108              		.loc 1 144 1 view .LVU28
 109 0002 10B4     		push	{r4}
 110              	.LCFI1:
 111              		.cfi_def_cfa_offset 4
 112              		.cfi_offset 4, -4
 113 0004 0246     		mov	r2, r0
 154:Drivers/STM32F1xx_HAL_Driver/Src/stm32f1xx_hal_dma.c ****   assert_param(IS_DMA_DIRECTION(hdma->Init.Direction));
 114              		.loc 1 154 3 is_stmt 1 view .LVU29
 155:Drivers/STM32F1xx_HAL_Driver/Src/stm32f1xx_hal_dma.c ****   assert_param(IS_DMA_PERIPHERAL_INC_STATE(hdma->Init.PeriphInc));
 115              		.loc 1 155 3 view .LVU30
 156:Drivers/STM32F1xx_HAL_Driver/Src/stm32f1xx_hal_dma.c ****   assert_param(IS_DMA_MEMORY_INC_STATE(hdma->Init.MemInc));
 116              		.loc 1 156 3 view .LVU31
 157:Drivers/STM32F1xx_HAL_Driver/Src/stm32f1xx_hal_dma.c ****   assert_param(IS_DMA_PERIPHERAL_DATA_SIZE(hdma->Init.PeriphDataAlignment));
 117              		.loc 1 157 3 view .LVU32
 158:Drivers/STM32F1xx_HAL_Driver/Src/stm32f1xx_hal_dma.c ****   assert_param(IS_DMA_MEMORY_DATA_SIZE(hdma->Init.MemDataAlignment));
 118              		.loc 1 158 3 view .LVU33
 159:Drivers/STM32F1xx_HAL_Driver/Src/stm32f1xx_hal_dma.c ****   assert_param(IS_DMA_MODE(hdma->Init.Mode));
 119              		.loc 1 159 3 view .LVU34
 160:Drivers/STM32F1xx_HAL_Driver/Src/stm32f1xx_hal_dma.c ****   assert_param(IS_DMA_PRIORITY(hdma->Init.Priority));
 120              		.loc 1 160 3 view .LVU35
 161:Drivers/STM32F1xx_HAL_Driver/Src/stm32f1xx_hal_dma.c **** 
 121              		.loc 1 161 3 view .LVU36
 179:Drivers/STM32F1xx_HAL_Driver/Src/stm32f1xx_hal_dma.c ****   hdma->DmaBaseAddress = DMA1;
 122              		.loc 1 179 3 view .LVU37
 179:Drivers/STM32F1xx_HAL_Driver/Src/stm32f1xx_hal_dma.c ****   hdma->DmaBaseAddress = DMA1;
 123              		.loc 1 179 40 is_stmt 0 view .LVU38
 124 0006 0168     		ldr	r1, [r0]
ARM GAS  /tmp/cc2tQgYP.s 			page 19


 179:Drivers/STM32F1xx_HAL_Driver/Src/stm32f1xx_hal_dma.c ****   hdma->DmaBaseAddress = DMA1;
 125              		.loc 1 179 51 view .LVU39
 126 0008 144B     		ldr	r3, .L13
 127 000a 0B44     		add	r3, r3, r1
 179:Drivers/STM32F1xx_HAL_Driver/Src/stm32f1xx_hal_dma.c ****   hdma->DmaBaseAddress = DMA1;
 128              		.loc 1 179 78 view .LVU40
 129 000c 1448     		ldr	r0, .L13+4
 130              	.LVL7:
 179:Drivers/STM32F1xx_HAL_Driver/Src/stm32f1xx_hal_dma.c ****   hdma->DmaBaseAddress = DMA1;
 131              		.loc 1 179 78 view .LVU41
 132 000e A0FB0303 		umull	r0, r3, r0, r3
 133 0012 1B09     		lsrs	r3, r3, #4
 179:Drivers/STM32F1xx_HAL_Driver/Src/stm32f1xx_hal_dma.c ****   hdma->DmaBaseAddress = DMA1;
 134              		.loc 1 179 133 view .LVU42
 135 0014 9B00     		lsls	r3, r3, #2
 179:Drivers/STM32F1xx_HAL_Driver/Src/stm32f1xx_hal_dma.c ****   hdma->DmaBaseAddress = DMA1;
 136              		.loc 1 179 22 view .LVU43
 137 0016 1364     		str	r3, [r2, #64]
 180:Drivers/STM32F1xx_HAL_Driver/Src/stm32f1xx_hal_dma.c **** #endif /* DMA2 */
 138              		.loc 1 180 3 is_stmt 1 view .LVU44
 180:Drivers/STM32F1xx_HAL_Driver/Src/stm32f1xx_hal_dma.c **** #endif /* DMA2 */
 139              		.loc 1 180 24 is_stmt 0 view .LVU45
 140 0018 124B     		ldr	r3, .L13+8
 141 001a D363     		str	r3, [r2, #60]
 184:Drivers/STM32F1xx_HAL_Driver/Src/stm32f1xx_hal_dma.c **** 
 142              		.loc 1 184 3 is_stmt 1 view .LVU46
 184:Drivers/STM32F1xx_HAL_Driver/Src/stm32f1xx_hal_dma.c **** 
 143              		.loc 1 184 15 is_stmt 0 view .LVU47
 144 001c 0223     		movs	r3, #2
 145 001e 82F82130 		strb	r3, [r2, #33]
 187:Drivers/STM32F1xx_HAL_Driver/Src/stm32f1xx_hal_dma.c **** 
 146              		.loc 1 187 3 is_stmt 1 view .LVU48
 187:Drivers/STM32F1xx_HAL_Driver/Src/stm32f1xx_hal_dma.c **** 
 147              		.loc 1 187 7 is_stmt 0 view .LVU49
 148 0022 0868     		ldr	r0, [r1]
 149              	.LVL8:
 190:Drivers/STM32F1xx_HAL_Driver/Src/stm32f1xx_hal_dma.c ****                       DMA_CCR_MINC  | DMA_CCR_PINC   | DMA_CCR_CIRC   | \
 150              		.loc 1 190 3 is_stmt 1 view .LVU50
 190:Drivers/STM32F1xx_HAL_Driver/Src/stm32f1xx_hal_dma.c ****                       DMA_CCR_MINC  | DMA_CCR_PINC   | DMA_CCR_CIRC   | \
 151              		.loc 1 190 7 is_stmt 0 view .LVU51
 152 0024 6FF30D10 		bfc	r0, #4, #10
 153              	.LVL9:
 195:Drivers/STM32F1xx_HAL_Driver/Src/stm32f1xx_hal_dma.c ****           hdma->Init.PeriphInc           | hdma->Init.MemInc           |
 154              		.loc 1 195 3 is_stmt 1 view .LVU52
 195:Drivers/STM32F1xx_HAL_Driver/Src/stm32f1xx_hal_dma.c ****           hdma->Init.PeriphInc           | hdma->Init.MemInc           |
 155              		.loc 1 195 21 is_stmt 0 view .LVU53
 156 0028 5368     		ldr	r3, [r2, #4]
 195:Drivers/STM32F1xx_HAL_Driver/Src/stm32f1xx_hal_dma.c ****           hdma->Init.PeriphInc           | hdma->Init.MemInc           |
 157              		.loc 1 195 39 view .LVU54
 158 002a 9468     		ldr	r4, [r2, #8]
 159 002c 2343     		orrs	r3, r3, r4
 196:Drivers/STM32F1xx_HAL_Driver/Src/stm32f1xx_hal_dma.c ****           hdma->Init.PeriphDataAlignment | hdma->Init.MemDataAlignment |
 160              		.loc 1 196 42 view .LVU55
 161 002e D468     		ldr	r4, [r2, #12]
 162 0030 2343     		orrs	r3, r3, r4
 196:Drivers/STM32F1xx_HAL_Driver/Src/stm32f1xx_hal_dma.c ****           hdma->Init.PeriphDataAlignment | hdma->Init.MemDataAlignment |
 163              		.loc 1 196 72 view .LVU56
ARM GAS  /tmp/cc2tQgYP.s 			page 20


 164 0032 1469     		ldr	r4, [r2, #16]
 165 0034 2343     		orrs	r3, r3, r4
 197:Drivers/STM32F1xx_HAL_Driver/Src/stm32f1xx_hal_dma.c ****           hdma->Init.Mode                | hdma->Init.Priority;
 166              		.loc 1 197 42 view .LVU57
 167 0036 5469     		ldr	r4, [r2, #20]
 168 0038 2343     		orrs	r3, r3, r4
 197:Drivers/STM32F1xx_HAL_Driver/Src/stm32f1xx_hal_dma.c ****           hdma->Init.Mode                | hdma->Init.Priority;
 169              		.loc 1 197 72 view .LVU58
 170 003a 9469     		ldr	r4, [r2, #24]
 171 003c 2343     		orrs	r3, r3, r4
 198:Drivers/STM32F1xx_HAL_Driver/Src/stm32f1xx_hal_dma.c **** 
 172              		.loc 1 198 42 view .LVU59
 173 003e D469     		ldr	r4, [r2, #28]
 174 0040 2343     		orrs	r3, r3, r4
 195:Drivers/STM32F1xx_HAL_Driver/Src/stm32f1xx_hal_dma.c ****           hdma->Init.PeriphInc           | hdma->Init.MemInc           |
 175              		.loc 1 195 7 view .LVU60
 176 0042 0343     		orrs	r3, r3, r0
 177              	.LVL10:
 201:Drivers/STM32F1xx_HAL_Driver/Src/stm32f1xx_hal_dma.c **** 
 178              		.loc 1 201 3 is_stmt 1 view .LVU61
 201:Drivers/STM32F1xx_HAL_Driver/Src/stm32f1xx_hal_dma.c **** 
 179              		.loc 1 201 23 is_stmt 0 view .LVU62
 180 0044 0B60     		str	r3, [r1]
 204:Drivers/STM32F1xx_HAL_Driver/Src/stm32f1xx_hal_dma.c **** 
 181              		.loc 1 204 3 is_stmt 1 view .LVU63
 204:Drivers/STM32F1xx_HAL_Driver/Src/stm32f1xx_hal_dma.c **** 
 182              		.loc 1 204 19 is_stmt 0 view .LVU64
 183 0046 0020     		movs	r0, #0
 184 0048 9063     		str	r0, [r2, #56]
 207:Drivers/STM32F1xx_HAL_Driver/Src/stm32f1xx_hal_dma.c ****   /* Allocate lock resource and initialize it */
 185              		.loc 1 207 3 is_stmt 1 view .LVU65
 207:Drivers/STM32F1xx_HAL_Driver/Src/stm32f1xx_hal_dma.c ****   /* Allocate lock resource and initialize it */
 186              		.loc 1 207 15 is_stmt 0 view .LVU66
 187 004a 0123     		movs	r3, #1
 188              	.LVL11:
 207:Drivers/STM32F1xx_HAL_Driver/Src/stm32f1xx_hal_dma.c ****   /* Allocate lock resource and initialize it */
 189              		.loc 1 207 15 view .LVU67
 190 004c 82F82130 		strb	r3, [r2, #33]
 209:Drivers/STM32F1xx_HAL_Driver/Src/stm32f1xx_hal_dma.c **** 
 191              		.loc 1 209 3 is_stmt 1 view .LVU68
 209:Drivers/STM32F1xx_HAL_Driver/Src/stm32f1xx_hal_dma.c **** 
 192              		.loc 1 209 14 is_stmt 0 view .LVU69
 193 0050 82F82000 		strb	r0, [r2, #32]
 211:Drivers/STM32F1xx_HAL_Driver/Src/stm32f1xx_hal_dma.c **** }
 194              		.loc 1 211 3 is_stmt 1 view .LVU70
 212:Drivers/STM32F1xx_HAL_Driver/Src/stm32f1xx_hal_dma.c **** 
 195              		.loc 1 212 1 is_stmt 0 view .LVU71
 196 0054 10BC     		pop	{r4}
 197              	.LCFI2:
 198              		.cfi_restore 4
 199              		.cfi_def_cfa_offset 0
 200 0056 7047     		bx	lr
 201              	.LVL12:
 202              	.L8:
 150:Drivers/STM32F1xx_HAL_Driver/Src/stm32f1xx_hal_dma.c ****   }
 203              		.loc 1 150 12 view .LVU72
 204 0058 0120     		movs	r0, #1
ARM GAS  /tmp/cc2tQgYP.s 			page 21


 205              	.LVL13:
 212:Drivers/STM32F1xx_HAL_Driver/Src/stm32f1xx_hal_dma.c **** 
 206              		.loc 1 212 1 view .LVU73
 207 005a 7047     		bx	lr
 208              	.L14:
 209              		.align	2
 210              	.L13:
 211 005c F8FFFDBF 		.word	-1073872904
 212 0060 CDCCCCCC 		.word	-858993459
 213 0064 00000240 		.word	1073872896
 214              		.cfi_endproc
 215              	.LFE65:
 217              		.section	.text.HAL_DMA_DeInit,"ax",%progbits
 218              		.align	1
 219              		.global	HAL_DMA_DeInit
 220              		.syntax unified
 221              		.thumb
 222              		.thumb_func
 224              	HAL_DMA_DeInit:
 225              	.LVL14:
 226              	.LFB66:
 221:Drivers/STM32F1xx_HAL_Driver/Src/stm32f1xx_hal_dma.c ****   /* Check the DMA handle allocation */
 227              		.loc 1 221 1 is_stmt 1 view -0
 228              		.cfi_startproc
 229              		@ args = 0, pretend = 0, frame = 0
 230              		@ frame_needed = 0, uses_anonymous_args = 0
 231              		@ link register save eliminated.
 223:Drivers/STM32F1xx_HAL_Driver/Src/stm32f1xx_hal_dma.c ****   {
 232              		.loc 1 223 3 view .LVU75
 223:Drivers/STM32F1xx_HAL_Driver/Src/stm32f1xx_hal_dma.c ****   {
 233              		.loc 1 223 5 is_stmt 0 view .LVU76
 234 0000 0346     		mov	r3, r0
 235 0002 48B3     		cbz	r0, .L17
 229:Drivers/STM32F1xx_HAL_Driver/Src/stm32f1xx_hal_dma.c **** 
 236              		.loc 1 229 3 is_stmt 1 view .LVU77
 232:Drivers/STM32F1xx_HAL_Driver/Src/stm32f1xx_hal_dma.c **** 
 237              		.loc 1 232 3 view .LVU78
 238 0004 0168     		ldr	r1, [r0]
 239 0006 0A68     		ldr	r2, [r1]
 240 0008 22F00102 		bic	r2, r2, #1
 241 000c 0A60     		str	r2, [r1]
 235:Drivers/STM32F1xx_HAL_Driver/Src/stm32f1xx_hal_dma.c **** 
 242              		.loc 1 235 3 view .LVU79
 235:Drivers/STM32F1xx_HAL_Driver/Src/stm32f1xx_hal_dma.c **** 
 243              		.loc 1 235 7 is_stmt 0 view .LVU80
 244 000e 0268     		ldr	r2, [r0]
 235:Drivers/STM32F1xx_HAL_Driver/Src/stm32f1xx_hal_dma.c **** 
 245              		.loc 1 235 24 view .LVU81
 246 0010 0020     		movs	r0, #0
 247              	.LVL15:
 235:Drivers/STM32F1xx_HAL_Driver/Src/stm32f1xx_hal_dma.c **** 
 248              		.loc 1 235 24 view .LVU82
 249 0012 1060     		str	r0, [r2]
 238:Drivers/STM32F1xx_HAL_Driver/Src/stm32f1xx_hal_dma.c **** 
 250              		.loc 1 238 3 is_stmt 1 view .LVU83
 238:Drivers/STM32F1xx_HAL_Driver/Src/stm32f1xx_hal_dma.c **** 
 251              		.loc 1 238 7 is_stmt 0 view .LVU84
ARM GAS  /tmp/cc2tQgYP.s 			page 22


 252 0014 1A68     		ldr	r2, [r3]
 238:Drivers/STM32F1xx_HAL_Driver/Src/stm32f1xx_hal_dma.c **** 
 253              		.loc 1 238 25 view .LVU85
 254 0016 5060     		str	r0, [r2, #4]
 241:Drivers/STM32F1xx_HAL_Driver/Src/stm32f1xx_hal_dma.c **** 
 255              		.loc 1 241 3 is_stmt 1 view .LVU86
 241:Drivers/STM32F1xx_HAL_Driver/Src/stm32f1xx_hal_dma.c **** 
 256              		.loc 1 241 7 is_stmt 0 view .LVU87
 257 0018 1A68     		ldr	r2, [r3]
 241:Drivers/STM32F1xx_HAL_Driver/Src/stm32f1xx_hal_dma.c **** 
 258              		.loc 1 241 25 view .LVU88
 259 001a 9060     		str	r0, [r2, #8]
 244:Drivers/STM32F1xx_HAL_Driver/Src/stm32f1xx_hal_dma.c **** 
 260              		.loc 1 244 3 is_stmt 1 view .LVU89
 244:Drivers/STM32F1xx_HAL_Driver/Src/stm32f1xx_hal_dma.c **** 
 261              		.loc 1 244 7 is_stmt 0 view .LVU90
 262 001c 1A68     		ldr	r2, [r3]
 244:Drivers/STM32F1xx_HAL_Driver/Src/stm32f1xx_hal_dma.c **** 
 263              		.loc 1 244 24 view .LVU91
 264 001e D060     		str	r0, [r2, #12]
 262:Drivers/STM32F1xx_HAL_Driver/Src/stm32f1xx_hal_dma.c ****   hdma->DmaBaseAddress = DMA1;
 265              		.loc 1 262 3 is_stmt 1 view .LVU92
 262:Drivers/STM32F1xx_HAL_Driver/Src/stm32f1xx_hal_dma.c ****   hdma->DmaBaseAddress = DMA1;
 266              		.loc 1 262 40 is_stmt 0 view .LVU93
 267 0020 1968     		ldr	r1, [r3]
 262:Drivers/STM32F1xx_HAL_Driver/Src/stm32f1xx_hal_dma.c ****   hdma->DmaBaseAddress = DMA1;
 268              		.loc 1 262 51 view .LVU94
 269 0022 0E4A     		ldr	r2, .L18
 270 0024 0A44     		add	r2, r2, r1
 262:Drivers/STM32F1xx_HAL_Driver/Src/stm32f1xx_hal_dma.c ****   hdma->DmaBaseAddress = DMA1;
 271              		.loc 1 262 78 view .LVU95
 272 0026 0E49     		ldr	r1, .L18+4
 273 0028 A1FB0212 		umull	r1, r2, r1, r2
 274 002c 1209     		lsrs	r2, r2, #4
 262:Drivers/STM32F1xx_HAL_Driver/Src/stm32f1xx_hal_dma.c ****   hdma->DmaBaseAddress = DMA1;
 275              		.loc 1 262 133 view .LVU96
 276 002e 9200     		lsls	r2, r2, #2
 262:Drivers/STM32F1xx_HAL_Driver/Src/stm32f1xx_hal_dma.c ****   hdma->DmaBaseAddress = DMA1;
 277              		.loc 1 262 22 view .LVU97
 278 0030 1A64     		str	r2, [r3, #64]
 263:Drivers/STM32F1xx_HAL_Driver/Src/stm32f1xx_hal_dma.c **** #endif /* DMA2 */
 279              		.loc 1 263 3 is_stmt 1 view .LVU98
 263:Drivers/STM32F1xx_HAL_Driver/Src/stm32f1xx_hal_dma.c **** #endif /* DMA2 */
 280              		.loc 1 263 24 is_stmt 0 view .LVU99
 281 0032 DFF830C0 		ldr	ip, .L18+8
 282 0036 C3F83CC0 		str	ip, [r3, #60]
 267:Drivers/STM32F1xx_HAL_Driver/Src/stm32f1xx_hal_dma.c **** 
 283              		.loc 1 267 3 is_stmt 1 view .LVU100
 267:Drivers/STM32F1xx_HAL_Driver/Src/stm32f1xx_hal_dma.c **** 
 284              		.loc 1 267 46 is_stmt 0 view .LVU101
 285 003a 0121     		movs	r1, #1
 286 003c 01FA02F2 		lsl	r2, r1, r2
 267:Drivers/STM32F1xx_HAL_Driver/Src/stm32f1xx_hal_dma.c **** 
 287              		.loc 1 267 30 view .LVU102
 288 0040 CCF80420 		str	r2, [ip, #4]
 270:Drivers/STM32F1xx_HAL_Driver/Src/stm32f1xx_hal_dma.c ****   hdma->XferHalfCpltCallback = NULL;
 289              		.loc 1 270 3 is_stmt 1 view .LVU103
ARM GAS  /tmp/cc2tQgYP.s 			page 23


 270:Drivers/STM32F1xx_HAL_Driver/Src/stm32f1xx_hal_dma.c ****   hdma->XferHalfCpltCallback = NULL;
 290              		.loc 1 270 26 is_stmt 0 view .LVU104
 291 0044 9862     		str	r0, [r3, #40]
 271:Drivers/STM32F1xx_HAL_Driver/Src/stm32f1xx_hal_dma.c ****   hdma->XferErrorCallback = NULL;
 292              		.loc 1 271 3 is_stmt 1 view .LVU105
 271:Drivers/STM32F1xx_HAL_Driver/Src/stm32f1xx_hal_dma.c ****   hdma->XferErrorCallback = NULL;
 293              		.loc 1 271 30 is_stmt 0 view .LVU106
 294 0046 D862     		str	r0, [r3, #44]
 272:Drivers/STM32F1xx_HAL_Driver/Src/stm32f1xx_hal_dma.c ****   hdma->XferAbortCallback = NULL;
 295              		.loc 1 272 3 is_stmt 1 view .LVU107
 272:Drivers/STM32F1xx_HAL_Driver/Src/stm32f1xx_hal_dma.c ****   hdma->XferAbortCallback = NULL;
 296              		.loc 1 272 27 is_stmt 0 view .LVU108
 297 0048 1863     		str	r0, [r3, #48]
 273:Drivers/STM32F1xx_HAL_Driver/Src/stm32f1xx_hal_dma.c **** 
 298              		.loc 1 273 3 is_stmt 1 view .LVU109
 273:Drivers/STM32F1xx_HAL_Driver/Src/stm32f1xx_hal_dma.c **** 
 299              		.loc 1 273 27 is_stmt 0 view .LVU110
 300 004a 5863     		str	r0, [r3, #52]
 276:Drivers/STM32F1xx_HAL_Driver/Src/stm32f1xx_hal_dma.c **** 
 301              		.loc 1 276 3 is_stmt 1 view .LVU111
 276:Drivers/STM32F1xx_HAL_Driver/Src/stm32f1xx_hal_dma.c **** 
 302              		.loc 1 276 19 is_stmt 0 view .LVU112
 303 004c 9863     		str	r0, [r3, #56]
 279:Drivers/STM32F1xx_HAL_Driver/Src/stm32f1xx_hal_dma.c **** 
 304              		.loc 1 279 3 is_stmt 1 view .LVU113
 279:Drivers/STM32F1xx_HAL_Driver/Src/stm32f1xx_hal_dma.c **** 
 305              		.loc 1 279 15 is_stmt 0 view .LVU114
 306 004e 83F82100 		strb	r0, [r3, #33]
 282:Drivers/STM32F1xx_HAL_Driver/Src/stm32f1xx_hal_dma.c **** 
 307              		.loc 1 282 3 is_stmt 1 view .LVU115
 282:Drivers/STM32F1xx_HAL_Driver/Src/stm32f1xx_hal_dma.c **** 
 308              		.loc 1 282 3 view .LVU116
 309 0052 83F82000 		strb	r0, [r3, #32]
 282:Drivers/STM32F1xx_HAL_Driver/Src/stm32f1xx_hal_dma.c **** 
 310              		.loc 1 282 3 view .LVU117
 284:Drivers/STM32F1xx_HAL_Driver/Src/stm32f1xx_hal_dma.c **** }
 311              		.loc 1 284 3 view .LVU118
 284:Drivers/STM32F1xx_HAL_Driver/Src/stm32f1xx_hal_dma.c **** }
 312              		.loc 1 284 10 is_stmt 0 view .LVU119
 313 0056 7047     		bx	lr
 314              	.LVL16:
 315              	.L17:
 225:Drivers/STM32F1xx_HAL_Driver/Src/stm32f1xx_hal_dma.c ****   }
 316              		.loc 1 225 12 view .LVU120
 317 0058 0120     		movs	r0, #1
 318              	.LVL17:
 285:Drivers/STM32F1xx_HAL_Driver/Src/stm32f1xx_hal_dma.c **** 
 319              		.loc 1 285 1 view .LVU121
 320 005a 7047     		bx	lr
 321              	.L19:
 322              		.align	2
 323              	.L18:
 324 005c F8FFFDBF 		.word	-1073872904
 325 0060 CDCCCCCC 		.word	-858993459
 326 0064 00000240 		.word	1073872896
 327              		.cfi_endproc
 328              	.LFE66:
ARM GAS  /tmp/cc2tQgYP.s 			page 24


 330              		.section	.text.HAL_DMA_Start,"ax",%progbits
 331              		.align	1
 332              		.global	HAL_DMA_Start
 333              		.syntax unified
 334              		.thumb
 335              		.thumb_func
 337              	HAL_DMA_Start:
 338              	.LVL18:
 339              	.LFB67:
 320:Drivers/STM32F1xx_HAL_Driver/Src/stm32f1xx_hal_dma.c ****   HAL_StatusTypeDef status = HAL_OK;
 340              		.loc 1 320 1 is_stmt 1 view -0
 341              		.cfi_startproc
 342              		@ args = 0, pretend = 0, frame = 0
 343              		@ frame_needed = 0, uses_anonymous_args = 0
 320:Drivers/STM32F1xx_HAL_Driver/Src/stm32f1xx_hal_dma.c ****   HAL_StatusTypeDef status = HAL_OK;
 344              		.loc 1 320 1 is_stmt 0 view .LVU123
 345 0000 10B5     		push	{r4, lr}
 346              	.LCFI3:
 347              		.cfi_def_cfa_offset 8
 348              		.cfi_offset 4, -8
 349              		.cfi_offset 14, -4
 350 0002 0446     		mov	r4, r0
 321:Drivers/STM32F1xx_HAL_Driver/Src/stm32f1xx_hal_dma.c **** 
 351              		.loc 1 321 3 is_stmt 1 view .LVU124
 352              	.LVL19:
 324:Drivers/STM32F1xx_HAL_Driver/Src/stm32f1xx_hal_dma.c **** 
 353              		.loc 1 324 3 view .LVU125
 327:Drivers/STM32F1xx_HAL_Driver/Src/stm32f1xx_hal_dma.c **** 
 354              		.loc 1 327 3 view .LVU126
 327:Drivers/STM32F1xx_HAL_Driver/Src/stm32f1xx_hal_dma.c **** 
 355              		.loc 1 327 3 view .LVU127
 356 0004 90F82000 		ldrb	r0, [r0, #32]	@ zero_extendqisi2
 357              	.LVL20:
 327:Drivers/STM32F1xx_HAL_Driver/Src/stm32f1xx_hal_dma.c **** 
 358              		.loc 1 327 3 is_stmt 0 view .LVU128
 359 0008 0128     		cmp	r0, #1
 360 000a 22D0     		beq	.L23
 327:Drivers/STM32F1xx_HAL_Driver/Src/stm32f1xx_hal_dma.c **** 
 361              		.loc 1 327 3 is_stmt 1 discriminator 2 view .LVU129
 362 000c 0120     		movs	r0, #1
 363 000e 84F82000 		strb	r0, [r4, #32]
 327:Drivers/STM32F1xx_HAL_Driver/Src/stm32f1xx_hal_dma.c **** 
 364              		.loc 1 327 3 view .LVU130
 329:Drivers/STM32F1xx_HAL_Driver/Src/stm32f1xx_hal_dma.c ****   {
 365              		.loc 1 329 3 view .LVU131
 329:Drivers/STM32F1xx_HAL_Driver/Src/stm32f1xx_hal_dma.c ****   {
 366              		.loc 1 329 33 is_stmt 0 view .LVU132
 367 0012 94F82100 		ldrb	r0, [r4, #33]	@ zero_extendqisi2
 329:Drivers/STM32F1xx_HAL_Driver/Src/stm32f1xx_hal_dma.c ****   {
 368              		.loc 1 329 5 view .LVU133
 369 0016 0128     		cmp	r0, #1
 370 0018 04D0     		beq	.L25
 347:Drivers/STM32F1xx_HAL_Driver/Src/stm32f1xx_hal_dma.c ****    status = HAL_BUSY;
 371              		.loc 1 347 4 is_stmt 1 view .LVU134
 347:Drivers/STM32F1xx_HAL_Driver/Src/stm32f1xx_hal_dma.c ****    status = HAL_BUSY;
 372              		.loc 1 347 4 view .LVU135
 373 001a 0023     		movs	r3, #0
ARM GAS  /tmp/cc2tQgYP.s 			page 25


 374              	.LVL21:
 347:Drivers/STM32F1xx_HAL_Driver/Src/stm32f1xx_hal_dma.c ****    status = HAL_BUSY;
 375              		.loc 1 347 4 is_stmt 0 view .LVU136
 376 001c 84F82030 		strb	r3, [r4, #32]
 347:Drivers/STM32F1xx_HAL_Driver/Src/stm32f1xx_hal_dma.c ****    status = HAL_BUSY;
 377              		.loc 1 347 4 is_stmt 1 view .LVU137
 348:Drivers/STM32F1xx_HAL_Driver/Src/stm32f1xx_hal_dma.c ****   }  
 378              		.loc 1 348 4 view .LVU138
 379              	.LVL22:
 348:Drivers/STM32F1xx_HAL_Driver/Src/stm32f1xx_hal_dma.c ****   }  
 380              		.loc 1 348 11 is_stmt 0 view .LVU139
 381 0020 0220     		movs	r0, #2
 382              	.LVL23:
 383              	.L21:
 351:Drivers/STM32F1xx_HAL_Driver/Src/stm32f1xx_hal_dma.c **** 
 384              		.loc 1 351 1 view .LVU140
 385 0022 10BD     		pop	{r4, pc}
 386              	.LVL24:
 387              	.L25:
 332:Drivers/STM32F1xx_HAL_Driver/Src/stm32f1xx_hal_dma.c ****     hdma->ErrorCode = HAL_DMA_ERROR_NONE;
 388              		.loc 1 332 5 is_stmt 1 view .LVU141
 332:Drivers/STM32F1xx_HAL_Driver/Src/stm32f1xx_hal_dma.c ****     hdma->ErrorCode = HAL_DMA_ERROR_NONE;
 389              		.loc 1 332 17 is_stmt 0 view .LVU142
 390 0024 0220     		movs	r0, #2
 391 0026 84F82100 		strb	r0, [r4, #33]
 333:Drivers/STM32F1xx_HAL_Driver/Src/stm32f1xx_hal_dma.c ****             
 392              		.loc 1 333 5 is_stmt 1 view .LVU143
 333:Drivers/STM32F1xx_HAL_Driver/Src/stm32f1xx_hal_dma.c ****             
 393              		.loc 1 333 21 is_stmt 0 view .LVU144
 394 002a 0020     		movs	r0, #0
 395 002c A063     		str	r0, [r4, #56]
 336:Drivers/STM32F1xx_HAL_Driver/Src/stm32f1xx_hal_dma.c ****     
 396              		.loc 1 336 5 is_stmt 1 view .LVU145
 397 002e D4F800C0 		ldr	ip, [r4]
 398 0032 DCF80000 		ldr	r0, [ip]
 399 0036 20F00100 		bic	r0, r0, #1
 400 003a CCF80000 		str	r0, [ip]
 339:Drivers/STM32F1xx_HAL_Driver/Src/stm32f1xx_hal_dma.c ****     
 401              		.loc 1 339 5 view .LVU146
 402 003e 2046     		mov	r0, r4
 403 0040 FFF7FEFF 		bl	DMA_SetConfig
 404              	.LVL25:
 342:Drivers/STM32F1xx_HAL_Driver/Src/stm32f1xx_hal_dma.c ****   }
 405              		.loc 1 342 5 view .LVU147
 406 0044 2268     		ldr	r2, [r4]
 407 0046 1368     		ldr	r3, [r2]
 408 0048 43F00103 		orr	r3, r3, #1
 409 004c 1360     		str	r3, [r2]
 321:Drivers/STM32F1xx_HAL_Driver/Src/stm32f1xx_hal_dma.c **** 
 410              		.loc 1 321 21 is_stmt 0 view .LVU148
 411 004e 0020     		movs	r0, #0
 412 0050 E7E7     		b	.L21
 413              	.LVL26:
 414              	.L23:
 327:Drivers/STM32F1xx_HAL_Driver/Src/stm32f1xx_hal_dma.c **** 
 415              		.loc 1 327 3 discriminator 1 view .LVU149
 416 0052 0220     		movs	r0, #2
ARM GAS  /tmp/cc2tQgYP.s 			page 26


 417 0054 E5E7     		b	.L21
 418              		.cfi_endproc
 419              	.LFE67:
 421              		.section	.text.HAL_DMA_Start_IT,"ax",%progbits
 422              		.align	1
 423              		.global	HAL_DMA_Start_IT
 424              		.syntax unified
 425              		.thumb
 426              		.thumb_func
 428              	HAL_DMA_Start_IT:
 429              	.LVL27:
 430              	.LFB68:
 363:Drivers/STM32F1xx_HAL_Driver/Src/stm32f1xx_hal_dma.c ****   HAL_StatusTypeDef status = HAL_OK;
 431              		.loc 1 363 1 is_stmt 1 view -0
 432              		.cfi_startproc
 433              		@ args = 0, pretend = 0, frame = 0
 434              		@ frame_needed = 0, uses_anonymous_args = 0
 363:Drivers/STM32F1xx_HAL_Driver/Src/stm32f1xx_hal_dma.c ****   HAL_StatusTypeDef status = HAL_OK;
 435              		.loc 1 363 1 is_stmt 0 view .LVU151
 436 0000 10B5     		push	{r4, lr}
 437              	.LCFI4:
 438              		.cfi_def_cfa_offset 8
 439              		.cfi_offset 4, -8
 440              		.cfi_offset 14, -4
 441 0002 0446     		mov	r4, r0
 364:Drivers/STM32F1xx_HAL_Driver/Src/stm32f1xx_hal_dma.c **** 
 442              		.loc 1 364 3 is_stmt 1 view .LVU152
 443              	.LVL28:
 367:Drivers/STM32F1xx_HAL_Driver/Src/stm32f1xx_hal_dma.c **** 
 444              		.loc 1 367 3 view .LVU153
 370:Drivers/STM32F1xx_HAL_Driver/Src/stm32f1xx_hal_dma.c ****   
 445              		.loc 1 370 3 view .LVU154
 370:Drivers/STM32F1xx_HAL_Driver/Src/stm32f1xx_hal_dma.c ****   
 446              		.loc 1 370 3 view .LVU155
 447 0004 90F82000 		ldrb	r0, [r0, #32]	@ zero_extendqisi2
 448              	.LVL29:
 370:Drivers/STM32F1xx_HAL_Driver/Src/stm32f1xx_hal_dma.c ****   
 449              		.loc 1 370 3 is_stmt 0 view .LVU156
 450 0008 0128     		cmp	r0, #1
 451 000a 34D0     		beq	.L31
 370:Drivers/STM32F1xx_HAL_Driver/Src/stm32f1xx_hal_dma.c ****   
 452              		.loc 1 370 3 is_stmt 1 discriminator 2 view .LVU157
 453 000c 0120     		movs	r0, #1
 454 000e 84F82000 		strb	r0, [r4, #32]
 370:Drivers/STM32F1xx_HAL_Driver/Src/stm32f1xx_hal_dma.c ****   
 455              		.loc 1 370 3 view .LVU158
 372:Drivers/STM32F1xx_HAL_Driver/Src/stm32f1xx_hal_dma.c ****   {
 456              		.loc 1 372 3 view .LVU159
 372:Drivers/STM32F1xx_HAL_Driver/Src/stm32f1xx_hal_dma.c ****   {
 457              		.loc 1 372 33 is_stmt 0 view .LVU160
 458 0012 94F82100 		ldrb	r0, [r4, #33]	@ zero_extendqisi2
 372:Drivers/STM32F1xx_HAL_Driver/Src/stm32f1xx_hal_dma.c ****   {
 459              		.loc 1 372 5 view .LVU161
 460 0016 0128     		cmp	r0, #1
 461 0018 04D0     		beq	.L33
 402:Drivers/STM32F1xx_HAL_Driver/Src/stm32f1xx_hal_dma.c **** 
 462              		.loc 1 402 5 is_stmt 1 view .LVU162
ARM GAS  /tmp/cc2tQgYP.s 			page 27


 402:Drivers/STM32F1xx_HAL_Driver/Src/stm32f1xx_hal_dma.c **** 
 463              		.loc 1 402 5 view .LVU163
 464 001a 0023     		movs	r3, #0
 465              	.LVL30:
 402:Drivers/STM32F1xx_HAL_Driver/Src/stm32f1xx_hal_dma.c **** 
 466              		.loc 1 402 5 is_stmt 0 view .LVU164
 467 001c 84F82030 		strb	r3, [r4, #32]
 402:Drivers/STM32F1xx_HAL_Driver/Src/stm32f1xx_hal_dma.c **** 
 468              		.loc 1 402 5 is_stmt 1 view .LVU165
 405:Drivers/STM32F1xx_HAL_Driver/Src/stm32f1xx_hal_dma.c ****   }    
 469              		.loc 1 405 5 view .LVU166
 470              	.LVL31:
 405:Drivers/STM32F1xx_HAL_Driver/Src/stm32f1xx_hal_dma.c ****   }    
 471              		.loc 1 405 12 is_stmt 0 view .LVU167
 472 0020 0220     		movs	r0, #2
 473              	.LVL32:
 474              	.L27:
 408:Drivers/STM32F1xx_HAL_Driver/Src/stm32f1xx_hal_dma.c **** 
 475              		.loc 1 408 1 view .LVU168
 476 0022 10BD     		pop	{r4, pc}
 477              	.LVL33:
 478              	.L33:
 375:Drivers/STM32F1xx_HAL_Driver/Src/stm32f1xx_hal_dma.c ****     hdma->ErrorCode = HAL_DMA_ERROR_NONE;
 479              		.loc 1 375 5 is_stmt 1 view .LVU169
 375:Drivers/STM32F1xx_HAL_Driver/Src/stm32f1xx_hal_dma.c ****     hdma->ErrorCode = HAL_DMA_ERROR_NONE;
 480              		.loc 1 375 17 is_stmt 0 view .LVU170
 481 0024 0220     		movs	r0, #2
 482 0026 84F82100 		strb	r0, [r4, #33]
 376:Drivers/STM32F1xx_HAL_Driver/Src/stm32f1xx_hal_dma.c ****     
 483              		.loc 1 376 5 is_stmt 1 view .LVU171
 376:Drivers/STM32F1xx_HAL_Driver/Src/stm32f1xx_hal_dma.c ****     
 484              		.loc 1 376 21 is_stmt 0 view .LVU172
 485 002a 0020     		movs	r0, #0
 486 002c A063     		str	r0, [r4, #56]
 379:Drivers/STM32F1xx_HAL_Driver/Src/stm32f1xx_hal_dma.c ****     
 487              		.loc 1 379 5 is_stmt 1 view .LVU173
 488 002e D4F800C0 		ldr	ip, [r4]
 489 0032 DCF80000 		ldr	r0, [ip]
 490 0036 20F00100 		bic	r0, r0, #1
 491 003a CCF80000 		str	r0, [ip]
 382:Drivers/STM32F1xx_HAL_Driver/Src/stm32f1xx_hal_dma.c ****     
 492              		.loc 1 382 5 view .LVU174
 493 003e 2046     		mov	r0, r4
 494 0040 FFF7FEFF 		bl	DMA_SetConfig
 495              	.LVL34:
 386:Drivers/STM32F1xx_HAL_Driver/Src/stm32f1xx_hal_dma.c ****     {
 496              		.loc 1 386 5 view .LVU175
 386:Drivers/STM32F1xx_HAL_Driver/Src/stm32f1xx_hal_dma.c ****     {
 497              		.loc 1 386 20 is_stmt 0 view .LVU176
 498 0044 E36A     		ldr	r3, [r4, #44]
 386:Drivers/STM32F1xx_HAL_Driver/Src/stm32f1xx_hal_dma.c ****     {
 499              		.loc 1 386 7 view .LVU177
 500 0046 5BB1     		cbz	r3, .L29
 389:Drivers/STM32F1xx_HAL_Driver/Src/stm32f1xx_hal_dma.c ****     }
 501              		.loc 1 389 7 is_stmt 1 view .LVU178
 502 0048 2268     		ldr	r2, [r4]
 503 004a 1368     		ldr	r3, [r2]
ARM GAS  /tmp/cc2tQgYP.s 			page 28


 504 004c 43F00E03 		orr	r3, r3, #14
 505 0050 1360     		str	r3, [r2]
 506              	.L30:
 397:Drivers/STM32F1xx_HAL_Driver/Src/stm32f1xx_hal_dma.c ****   }
 507              		.loc 1 397 5 view .LVU179
 508 0052 2268     		ldr	r2, [r4]
 509 0054 1368     		ldr	r3, [r2]
 510 0056 43F00103 		orr	r3, r3, #1
 511 005a 1360     		str	r3, [r2]
 364:Drivers/STM32F1xx_HAL_Driver/Src/stm32f1xx_hal_dma.c **** 
 512              		.loc 1 364 21 is_stmt 0 view .LVU180
 513 005c 0020     		movs	r0, #0
 514 005e E0E7     		b	.L27
 515              	.L29:
 393:Drivers/STM32F1xx_HAL_Driver/Src/stm32f1xx_hal_dma.c ****       __HAL_DMA_ENABLE_IT(hdma, (DMA_IT_TC | DMA_IT_TE));
 516              		.loc 1 393 7 is_stmt 1 view .LVU181
 517 0060 2268     		ldr	r2, [r4]
 518 0062 1368     		ldr	r3, [r2]
 519 0064 23F00403 		bic	r3, r3, #4
 520 0068 1360     		str	r3, [r2]
 394:Drivers/STM32F1xx_HAL_Driver/Src/stm32f1xx_hal_dma.c ****     }
 521              		.loc 1 394 7 view .LVU182
 522 006a 2268     		ldr	r2, [r4]
 523 006c 1368     		ldr	r3, [r2]
 524 006e 43F00A03 		orr	r3, r3, #10
 525 0072 1360     		str	r3, [r2]
 526 0074 EDE7     		b	.L30
 527              	.LVL35:
 528              	.L31:
 370:Drivers/STM32F1xx_HAL_Driver/Src/stm32f1xx_hal_dma.c ****   
 529              		.loc 1 370 3 is_stmt 0 discriminator 1 view .LVU183
 530 0076 0220     		movs	r0, #2
 531 0078 D3E7     		b	.L27
 532              		.cfi_endproc
 533              	.LFE68:
 535              		.section	.text.HAL_DMA_Abort,"ax",%progbits
 536              		.align	1
 537              		.global	HAL_DMA_Abort
 538              		.syntax unified
 539              		.thumb
 540              		.thumb_func
 542              	HAL_DMA_Abort:
 543              	.LVL36:
 544              	.LFB69:
 417:Drivers/STM32F1xx_HAL_Driver/Src/stm32f1xx_hal_dma.c ****   HAL_StatusTypeDef status = HAL_OK;
 545              		.loc 1 417 1 is_stmt 1 view -0
 546              		.cfi_startproc
 547              		@ args = 0, pretend = 0, frame = 0
 548              		@ frame_needed = 0, uses_anonymous_args = 0
 549              		@ link register save eliminated.
 417:Drivers/STM32F1xx_HAL_Driver/Src/stm32f1xx_hal_dma.c ****   HAL_StatusTypeDef status = HAL_OK;
 550              		.loc 1 417 1 is_stmt 0 view .LVU185
 551 0000 0346     		mov	r3, r0
 418:Drivers/STM32F1xx_HAL_Driver/Src/stm32f1xx_hal_dma.c ****   
 552              		.loc 1 418 3 is_stmt 1 view .LVU186
 553              	.LVL37:
 420:Drivers/STM32F1xx_HAL_Driver/Src/stm32f1xx_hal_dma.c ****   {
ARM GAS  /tmp/cc2tQgYP.s 			page 29


 554              		.loc 1 420 3 view .LVU187
 420:Drivers/STM32F1xx_HAL_Driver/Src/stm32f1xx_hal_dma.c ****   {
 555              		.loc 1 420 10 is_stmt 0 view .LVU188
 556 0002 90F82120 		ldrb	r2, [r0, #33]	@ zero_extendqisi2
 420:Drivers/STM32F1xx_HAL_Driver/Src/stm32f1xx_hal_dma.c ****   {
 557              		.loc 1 420 5 view .LVU189
 558 0006 022A     		cmp	r2, #2
 559 0008 06D0     		beq	.L35
 423:Drivers/STM32F1xx_HAL_Driver/Src/stm32f1xx_hal_dma.c ****     
 560              		.loc 1 423 5 is_stmt 1 view .LVU190
 423:Drivers/STM32F1xx_HAL_Driver/Src/stm32f1xx_hal_dma.c ****     
 561              		.loc 1 423 21 is_stmt 0 view .LVU191
 562 000a 0422     		movs	r2, #4
 563 000c 8263     		str	r2, [r0, #56]
 426:Drivers/STM32F1xx_HAL_Driver/Src/stm32f1xx_hal_dma.c ****     
 564              		.loc 1 426 5 is_stmt 1 view .LVU192
 426:Drivers/STM32F1xx_HAL_Driver/Src/stm32f1xx_hal_dma.c ****     
 565              		.loc 1 426 5 view .LVU193
 566 000e 0022     		movs	r2, #0
 567 0010 80F82020 		strb	r2, [r0, #32]
 426:Drivers/STM32F1xx_HAL_Driver/Src/stm32f1xx_hal_dma.c ****     
 568              		.loc 1 426 5 view .LVU194
 428:Drivers/STM32F1xx_HAL_Driver/Src/stm32f1xx_hal_dma.c ****   }
 569              		.loc 1 428 5 view .LVU195
 428:Drivers/STM32F1xx_HAL_Driver/Src/stm32f1xx_hal_dma.c ****   }
 570              		.loc 1 428 12 is_stmt 0 view .LVU196
 571 0014 0120     		movs	r0, #1
 572              	.LVL38:
 428:Drivers/STM32F1xx_HAL_Driver/Src/stm32f1xx_hal_dma.c ****   }
 573              		.loc 1 428 12 view .LVU197
 574 0016 7047     		bx	lr
 575              	.LVL39:
 576              	.L35:
 434:Drivers/STM32F1xx_HAL_Driver/Src/stm32f1xx_hal_dma.c ****       
 577              		.loc 1 434 5 is_stmt 1 view .LVU198
 578 0018 0168     		ldr	r1, [r0]
 579 001a 0A68     		ldr	r2, [r1]
 580 001c 22F00E02 		bic	r2, r2, #14
 581 0020 0A60     		str	r2, [r1]
 437:Drivers/STM32F1xx_HAL_Driver/Src/stm32f1xx_hal_dma.c ****       
 582              		.loc 1 437 5 view .LVU199
 583 0022 0168     		ldr	r1, [r0]
 584 0024 0A68     		ldr	r2, [r1]
 585 0026 22F00102 		bic	r2, r2, #1
 586 002a 0A60     		str	r2, [r1]
 440:Drivers/STM32F1xx_HAL_Driver/Src/stm32f1xx_hal_dma.c ****   }
 587              		.loc 1 440 5 view .LVU200
 440:Drivers/STM32F1xx_HAL_Driver/Src/stm32f1xx_hal_dma.c ****   }
 588              		.loc 1 440 55 is_stmt 0 view .LVU201
 589 002c 026C     		ldr	r2, [r0, #64]
 440:Drivers/STM32F1xx_HAL_Driver/Src/stm32f1xx_hal_dma.c ****   }
 590              		.loc 1 440 9 view .LVU202
 591 002e C06B     		ldr	r0, [r0, #60]
 592              	.LVL40:
 440:Drivers/STM32F1xx_HAL_Driver/Src/stm32f1xx_hal_dma.c ****   }
 593              		.loc 1 440 48 view .LVU203
 594 0030 0121     		movs	r1, #1
ARM GAS  /tmp/cc2tQgYP.s 			page 30


 595 0032 01FA02F2 		lsl	r2, r1, r2
 440:Drivers/STM32F1xx_HAL_Driver/Src/stm32f1xx_hal_dma.c ****   }
 596              		.loc 1 440 32 view .LVU204
 597 0036 4260     		str	r2, [r0, #4]
 443:Drivers/STM32F1xx_HAL_Driver/Src/stm32f1xx_hal_dma.c **** 
 598              		.loc 1 443 3 is_stmt 1 view .LVU205
 443:Drivers/STM32F1xx_HAL_Driver/Src/stm32f1xx_hal_dma.c **** 
 599              		.loc 1 443 15 is_stmt 0 view .LVU206
 600 0038 83F82110 		strb	r1, [r3, #33]
 446:Drivers/STM32F1xx_HAL_Driver/Src/stm32f1xx_hal_dma.c ****   
 601              		.loc 1 446 3 is_stmt 1 view .LVU207
 446:Drivers/STM32F1xx_HAL_Driver/Src/stm32f1xx_hal_dma.c ****   
 602              		.loc 1 446 3 view .LVU208
 603 003c 0020     		movs	r0, #0
 604 003e 83F82000 		strb	r0, [r3, #32]
 446:Drivers/STM32F1xx_HAL_Driver/Src/stm32f1xx_hal_dma.c ****   
 605              		.loc 1 446 3 view .LVU209
 448:Drivers/STM32F1xx_HAL_Driver/Src/stm32f1xx_hal_dma.c **** }
 606              		.loc 1 448 3 view .LVU210
 449:Drivers/STM32F1xx_HAL_Driver/Src/stm32f1xx_hal_dma.c **** 
 607              		.loc 1 449 1 is_stmt 0 view .LVU211
 608 0042 7047     		bx	lr
 609              		.cfi_endproc
 610              	.LFE69:
 612              		.section	.text.HAL_DMA_Abort_IT,"ax",%progbits
 613              		.align	1
 614              		.global	HAL_DMA_Abort_IT
 615              		.syntax unified
 616              		.thumb
 617              		.thumb_func
 619              	HAL_DMA_Abort_IT:
 620              	.LVL41:
 621              	.LFB70:
 458:Drivers/STM32F1xx_HAL_Driver/Src/stm32f1xx_hal_dma.c ****   HAL_StatusTypeDef status = HAL_OK;
 622              		.loc 1 458 1 is_stmt 1 view -0
 623              		.cfi_startproc
 624              		@ args = 0, pretend = 0, frame = 0
 625              		@ frame_needed = 0, uses_anonymous_args = 0
 458:Drivers/STM32F1xx_HAL_Driver/Src/stm32f1xx_hal_dma.c ****   HAL_StatusTypeDef status = HAL_OK;
 626              		.loc 1 458 1 is_stmt 0 view .LVU213
 627 0000 08B5     		push	{r3, lr}
 628              	.LCFI5:
 629              		.cfi_def_cfa_offset 8
 630              		.cfi_offset 3, -8
 631              		.cfi_offset 14, -4
 459:Drivers/STM32F1xx_HAL_Driver/Src/stm32f1xx_hal_dma.c ****   
 632              		.loc 1 459 3 is_stmt 1 view .LVU214
 633              	.LVL42:
 461:Drivers/STM32F1xx_HAL_Driver/Src/stm32f1xx_hal_dma.c ****   {
 634              		.loc 1 461 3 view .LVU215
 461:Drivers/STM32F1xx_HAL_Driver/Src/stm32f1xx_hal_dma.c ****   {
 635              		.loc 1 461 32 is_stmt 0 view .LVU216
 636 0002 90F82130 		ldrb	r3, [r0, #33]	@ zero_extendqisi2
 461:Drivers/STM32F1xx_HAL_Driver/Src/stm32f1xx_hal_dma.c ****   {
 637              		.loc 1 461 5 view .LVU217
 638 0006 022B     		cmp	r3, #2
 639 0008 03D0     		beq	.L38
ARM GAS  /tmp/cc2tQgYP.s 			page 31


 464:Drivers/STM32F1xx_HAL_Driver/Src/stm32f1xx_hal_dma.c ****         
 640              		.loc 1 464 5 is_stmt 1 view .LVU218
 464:Drivers/STM32F1xx_HAL_Driver/Src/stm32f1xx_hal_dma.c ****         
 641              		.loc 1 464 21 is_stmt 0 view .LVU219
 642 000a 0423     		movs	r3, #4
 643 000c 8363     		str	r3, [r0, #56]
 466:Drivers/STM32F1xx_HAL_Driver/Src/stm32f1xx_hal_dma.c ****   }
 644              		.loc 1 466 5 is_stmt 1 view .LVU220
 645              	.LVL43:
 466:Drivers/STM32F1xx_HAL_Driver/Src/stm32f1xx_hal_dma.c ****   }
 646              		.loc 1 466 12 is_stmt 0 view .LVU221
 647 000e 0120     		movs	r0, #1
 648              	.LVL44:
 649              	.L39:
 491:Drivers/STM32F1xx_HAL_Driver/Src/stm32f1xx_hal_dma.c **** }
 650              		.loc 1 491 3 is_stmt 1 view .LVU222
 492:Drivers/STM32F1xx_HAL_Driver/Src/stm32f1xx_hal_dma.c **** 
 651              		.loc 1 492 1 is_stmt 0 view .LVU223
 652 0010 08BD     		pop	{r3, pc}
 653              	.LVL45:
 654              	.L38:
 471:Drivers/STM32F1xx_HAL_Driver/Src/stm32f1xx_hal_dma.c **** 
 655              		.loc 1 471 5 is_stmt 1 view .LVU224
 656 0012 0268     		ldr	r2, [r0]
 657 0014 1368     		ldr	r3, [r2]
 658 0016 23F00E03 		bic	r3, r3, #14
 659 001a 1360     		str	r3, [r2]
 474:Drivers/STM32F1xx_HAL_Driver/Src/stm32f1xx_hal_dma.c **** 
 660              		.loc 1 474 5 view .LVU225
 661 001c 0268     		ldr	r2, [r0]
 662 001e 1368     		ldr	r3, [r2]
 663 0020 23F00103 		bic	r3, r3, #1
 664 0024 1360     		str	r3, [r2]
 477:Drivers/STM32F1xx_HAL_Driver/Src/stm32f1xx_hal_dma.c **** 
 665              		.loc 1 477 5 view .LVU226
 666 0026 0368     		ldr	r3, [r0]
 667 0028 194A     		ldr	r2, .L50
 668 002a 9342     		cmp	r3, r2
 669 002c 14D0     		beq	.L41
 477:Drivers/STM32F1xx_HAL_Driver/Src/stm32f1xx_hal_dma.c **** 
 670              		.loc 1 477 5 is_stmt 0 discriminator 1 view .LVU227
 671 002e 1432     		adds	r2, r2, #20
 672 0030 9342     		cmp	r3, r2
 673 0032 1FD0     		beq	.L42
 477:Drivers/STM32F1xx_HAL_Driver/Src/stm32f1xx_hal_dma.c **** 
 674              		.loc 1 477 5 discriminator 3 view .LVU228
 675 0034 1432     		adds	r2, r2, #20
 676 0036 9342     		cmp	r3, r2
 677 0038 1ED0     		beq	.L43
 477:Drivers/STM32F1xx_HAL_Driver/Src/stm32f1xx_hal_dma.c **** 
 678              		.loc 1 477 5 discriminator 5 view .LVU229
 679 003a 1432     		adds	r2, r2, #20
 680 003c 9342     		cmp	r3, r2
 681 003e 1ED0     		beq	.L44
 477:Drivers/STM32F1xx_HAL_Driver/Src/stm32f1xx_hal_dma.c **** 
 682              		.loc 1 477 5 discriminator 7 view .LVU230
 683 0040 1432     		adds	r2, r2, #20
ARM GAS  /tmp/cc2tQgYP.s 			page 32


 684 0042 9342     		cmp	r3, r2
 685 0044 1ED0     		beq	.L45
 477:Drivers/STM32F1xx_HAL_Driver/Src/stm32f1xx_hal_dma.c **** 
 686              		.loc 1 477 5 discriminator 9 view .LVU231
 687 0046 1432     		adds	r2, r2, #20
 688 0048 9342     		cmp	r3, r2
 689 004a 02D0     		beq	.L49
 477:Drivers/STM32F1xx_HAL_Driver/Src/stm32f1xx_hal_dma.c **** 
 690              		.loc 1 477 5 discriminator 12 view .LVU232
 691 004c 4FF08072 		mov	r2, #16777216
 692 0050 03E0     		b	.L40
 693              	.L49:
 477:Drivers/STM32F1xx_HAL_Driver/Src/stm32f1xx_hal_dma.c **** 
 694              		.loc 1 477 5 discriminator 11 view .LVU233
 695 0052 4FF48012 		mov	r2, #1048576
 696 0056 00E0     		b	.L40
 697              	.L41:
 477:Drivers/STM32F1xx_HAL_Driver/Src/stm32f1xx_hal_dma.c **** 
 698              		.loc 1 477 5 discriminator 2 view .LVU234
 699 0058 0122     		movs	r2, #1
 700              	.L40:
 477:Drivers/STM32F1xx_HAL_Driver/Src/stm32f1xx_hal_dma.c **** 
 701              		.loc 1 477 5 discriminator 13 view .LVU235
 702 005a 0E4B     		ldr	r3, .L50+4
 703 005c 5A60     		str	r2, [r3, #4]
 480:Drivers/STM32F1xx_HAL_Driver/Src/stm32f1xx_hal_dma.c **** 
 704              		.loc 1 480 5 is_stmt 1 view .LVU236
 480:Drivers/STM32F1xx_HAL_Driver/Src/stm32f1xx_hal_dma.c **** 
 705              		.loc 1 480 17 is_stmt 0 view .LVU237
 706 005e 0123     		movs	r3, #1
 707 0060 80F82130 		strb	r3, [r0, #33]
 483:Drivers/STM32F1xx_HAL_Driver/Src/stm32f1xx_hal_dma.c **** 
 708              		.loc 1 483 5 is_stmt 1 view .LVU238
 483:Drivers/STM32F1xx_HAL_Driver/Src/stm32f1xx_hal_dma.c **** 
 709              		.loc 1 483 5 view .LVU239
 710 0064 0023     		movs	r3, #0
 711 0066 80F82030 		strb	r3, [r0, #32]
 483:Drivers/STM32F1xx_HAL_Driver/Src/stm32f1xx_hal_dma.c **** 
 712              		.loc 1 483 5 view .LVU240
 486:Drivers/STM32F1xx_HAL_Driver/Src/stm32f1xx_hal_dma.c ****     {
 713              		.loc 1 486 5 view .LVU241
 486:Drivers/STM32F1xx_HAL_Driver/Src/stm32f1xx_hal_dma.c ****     {
 714              		.loc 1 486 12 is_stmt 0 view .LVU242
 715 006a 436B     		ldr	r3, [r0, #52]
 486:Drivers/STM32F1xx_HAL_Driver/Src/stm32f1xx_hal_dma.c ****     {
 716              		.loc 1 486 7 view .LVU243
 717 006c 6BB1     		cbz	r3, .L47
 488:Drivers/STM32F1xx_HAL_Driver/Src/stm32f1xx_hal_dma.c ****     } 
 718              		.loc 1 488 7 is_stmt 1 view .LVU244
 719 006e 9847     		blx	r3
 720              	.LVL46:
 459:Drivers/STM32F1xx_HAL_Driver/Src/stm32f1xx_hal_dma.c ****   
 721              		.loc 1 459 21 is_stmt 0 view .LVU245
 722 0070 0020     		movs	r0, #0
 723 0072 CDE7     		b	.L39
 724              	.LVL47:
 725              	.L42:
ARM GAS  /tmp/cc2tQgYP.s 			page 33


 477:Drivers/STM32F1xx_HAL_Driver/Src/stm32f1xx_hal_dma.c **** 
 726              		.loc 1 477 5 discriminator 4 view .LVU246
 727 0074 1022     		movs	r2, #16
 728 0076 F0E7     		b	.L40
 729              	.L43:
 477:Drivers/STM32F1xx_HAL_Driver/Src/stm32f1xx_hal_dma.c **** 
 730              		.loc 1 477 5 discriminator 6 view .LVU247
 731 0078 4FF48072 		mov	r2, #256
 732 007c EDE7     		b	.L40
 733              	.L44:
 477:Drivers/STM32F1xx_HAL_Driver/Src/stm32f1xx_hal_dma.c **** 
 734              		.loc 1 477 5 discriminator 8 view .LVU248
 735 007e 4FF48052 		mov	r2, #4096
 736 0082 EAE7     		b	.L40
 737              	.L45:
 477:Drivers/STM32F1xx_HAL_Driver/Src/stm32f1xx_hal_dma.c **** 
 738              		.loc 1 477 5 discriminator 10 view .LVU249
 739 0084 4FF48032 		mov	r2, #65536
 740 0088 E7E7     		b	.L40
 741              	.L47:
 459:Drivers/STM32F1xx_HAL_Driver/Src/stm32f1xx_hal_dma.c ****   
 742              		.loc 1 459 21 view .LVU250
 743 008a 1846     		mov	r0, r3
 744              	.LVL48:
 459:Drivers/STM32F1xx_HAL_Driver/Src/stm32f1xx_hal_dma.c ****   
 745              		.loc 1 459 21 view .LVU251
 746 008c C0E7     		b	.L39
 747              	.L51:
 748 008e 00BF     		.align	2
 749              	.L50:
 750 0090 08000240 		.word	1073872904
 751 0094 00000240 		.word	1073872896
 752              		.cfi_endproc
 753              	.LFE70:
 755              		.section	.text.HAL_DMA_PollForTransfer,"ax",%progbits
 756              		.align	1
 757              		.global	HAL_DMA_PollForTransfer
 758              		.syntax unified
 759              		.thumb
 760              		.thumb_func
 762              	HAL_DMA_PollForTransfer:
 763              	.LVL49:
 764              	.LFB71:
 503:Drivers/STM32F1xx_HAL_Driver/Src/stm32f1xx_hal_dma.c ****   uint32_t temp;
 765              		.loc 1 503 1 is_stmt 1 view -0
 766              		.cfi_startproc
 767              		@ args = 0, pretend = 0, frame = 0
 768              		@ frame_needed = 0, uses_anonymous_args = 0
 503:Drivers/STM32F1xx_HAL_Driver/Src/stm32f1xx_hal_dma.c ****   uint32_t temp;
 769              		.loc 1 503 1 is_stmt 0 view .LVU253
 770 0000 2DE9F041 		push	{r4, r5, r6, r7, r8, lr}
 771              	.LCFI6:
 772              		.cfi_def_cfa_offset 24
 773              		.cfi_offset 4, -24
 774              		.cfi_offset 5, -20
 775              		.cfi_offset 6, -16
 776              		.cfi_offset 7, -12
ARM GAS  /tmp/cc2tQgYP.s 			page 34


 777              		.cfi_offset 8, -8
 778              		.cfi_offset 14, -4
 779 0004 0446     		mov	r4, r0
 504:Drivers/STM32F1xx_HAL_Driver/Src/stm32f1xx_hal_dma.c ****   uint32_t tickstart = 0U;
 780              		.loc 1 504 3 is_stmt 1 view .LVU254
 505:Drivers/STM32F1xx_HAL_Driver/Src/stm32f1xx_hal_dma.c **** 
 781              		.loc 1 505 3 view .LVU255
 782              	.LVL50:
 507:Drivers/STM32F1xx_HAL_Driver/Src/stm32f1xx_hal_dma.c ****   {
 783              		.loc 1 507 3 view .LVU256
 507:Drivers/STM32F1xx_HAL_Driver/Src/stm32f1xx_hal_dma.c ****   {
 784              		.loc 1 507 32 is_stmt 0 view .LVU257
 785 0006 90F82130 		ldrb	r3, [r0, #33]	@ zero_extendqisi2
 507:Drivers/STM32F1xx_HAL_Driver/Src/stm32f1xx_hal_dma.c ****   {
 786              		.loc 1 507 5 view .LVU258
 787 000a 022B     		cmp	r3, #2
 788 000c 07D0     		beq	.L53
 510:Drivers/STM32F1xx_HAL_Driver/Src/stm32f1xx_hal_dma.c ****     __HAL_UNLOCK(hdma);
 789              		.loc 1 510 5 is_stmt 1 view .LVU259
 510:Drivers/STM32F1xx_HAL_Driver/Src/stm32f1xx_hal_dma.c ****     __HAL_UNLOCK(hdma);
 790              		.loc 1 510 21 is_stmt 0 view .LVU260
 791 000e 0423     		movs	r3, #4
 792 0010 8363     		str	r3, [r0, #56]
 511:Drivers/STM32F1xx_HAL_Driver/Src/stm32f1xx_hal_dma.c ****     return HAL_ERROR;
 793              		.loc 1 511 5 is_stmt 1 view .LVU261
 511:Drivers/STM32F1xx_HAL_Driver/Src/stm32f1xx_hal_dma.c ****     return HAL_ERROR;
 794              		.loc 1 511 5 view .LVU262
 795 0012 0023     		movs	r3, #0
 796 0014 80F82030 		strb	r3, [r0, #32]
 511:Drivers/STM32F1xx_HAL_Driver/Src/stm32f1xx_hal_dma.c ****     return HAL_ERROR;
 797              		.loc 1 511 5 view .LVU263
 512:Drivers/STM32F1xx_HAL_Driver/Src/stm32f1xx_hal_dma.c ****   }
 798              		.loc 1 512 5 view .LVU264
 512:Drivers/STM32F1xx_HAL_Driver/Src/stm32f1xx_hal_dma.c ****   }
 799              		.loc 1 512 12 is_stmt 0 view .LVU265
 800 0018 0120     		movs	r0, #1
 801              	.LVL51:
 802              	.L54:
 595:Drivers/STM32F1xx_HAL_Driver/Src/stm32f1xx_hal_dma.c **** 
 803              		.loc 1 595 1 view .LVU266
 804 001a BDE8F081 		pop	{r4, r5, r6, r7, r8, pc}
 805              	.LVL52:
 806              	.L53:
 595:Drivers/STM32F1xx_HAL_Driver/Src/stm32f1xx_hal_dma.c **** 
 807              		.loc 1 595 1 view .LVU267
 808 001e 0F46     		mov	r7, r1
 809 0020 1546     		mov	r5, r2
 516:Drivers/STM32F1xx_HAL_Driver/Src/stm32f1xx_hal_dma.c ****   {
 810              		.loc 1 516 3 is_stmt 1 view .LVU268
 516:Drivers/STM32F1xx_HAL_Driver/Src/stm32f1xx_hal_dma.c ****   {
 811              		.loc 1 516 21 is_stmt 0 view .LVU269
 812 0022 0368     		ldr	r3, [r0]
 516:Drivers/STM32F1xx_HAL_Driver/Src/stm32f1xx_hal_dma.c ****   {
 813              		.loc 1 516 31 view .LVU270
 814 0024 1A68     		ldr	r2, [r3]
 815              	.LVL53:
 516:Drivers/STM32F1xx_HAL_Driver/Src/stm32f1xx_hal_dma.c ****   {
ARM GAS  /tmp/cc2tQgYP.s 			page 35


 816              		.loc 1 516 6 view .LVU271
 817 0026 12F0200F 		tst	r2, #32
 818 002a 15D1     		bne	.L99
 523:Drivers/STM32F1xx_HAL_Driver/Src/stm32f1xx_hal_dma.c ****   {
 819              		.loc 1 523 3 is_stmt 1 view .LVU272
 523:Drivers/STM32F1xx_HAL_Driver/Src/stm32f1xx_hal_dma.c ****   {
 820              		.loc 1 523 5 is_stmt 0 view .LVU273
 821 002c E1B9     		cbnz	r1, .L56
 526:Drivers/STM32F1xx_HAL_Driver/Src/stm32f1xx_hal_dma.c ****   }
 822              		.loc 1 526 5 is_stmt 1 view .LVU274
 526:Drivers/STM32F1xx_HAL_Driver/Src/stm32f1xx_hal_dma.c ****   }
 823              		.loc 1 526 12 is_stmt 0 view .LVU275
 824 002e 7D4A     		ldr	r2, .L108
 825 0030 9342     		cmp	r3, r2
 826 0032 31D0     		beq	.L68
 526:Drivers/STM32F1xx_HAL_Driver/Src/stm32f1xx_hal_dma.c ****   }
 827              		.loc 1 526 12 discriminator 1 view .LVU276
 828 0034 1432     		adds	r2, r2, #20
 829 0036 9342     		cmp	r3, r2
 830 0038 33D0     		beq	.L69
 526:Drivers/STM32F1xx_HAL_Driver/Src/stm32f1xx_hal_dma.c ****   }
 831              		.loc 1 526 12 discriminator 3 view .LVU277
 832 003a 1432     		adds	r2, r2, #20
 833 003c 9342     		cmp	r3, r2
 834 003e 32D0     		beq	.L70
 526:Drivers/STM32F1xx_HAL_Driver/Src/stm32f1xx_hal_dma.c ****   }
 835              		.loc 1 526 12 discriminator 5 view .LVU278
 836 0040 1432     		adds	r2, r2, #20
 837 0042 9342     		cmp	r3, r2
 838 0044 32D0     		beq	.L71
 526:Drivers/STM32F1xx_HAL_Driver/Src/stm32f1xx_hal_dma.c ****   }
 839              		.loc 1 526 12 discriminator 7 view .LVU279
 840 0046 1432     		adds	r2, r2, #20
 841 0048 9342     		cmp	r3, r2
 842 004a 32D0     		beq	.L72
 526:Drivers/STM32F1xx_HAL_Driver/Src/stm32f1xx_hal_dma.c ****   }
 843              		.loc 1 526 12 discriminator 9 view .LVU280
 844 004c 1432     		adds	r2, r2, #20
 845 004e 9342     		cmp	r3, r2
 846 0050 07D0     		beq	.L100
 526:Drivers/STM32F1xx_HAL_Driver/Src/stm32f1xx_hal_dma.c ****   }
 847              		.loc 1 526 10 discriminator 12 view .LVU281
 848 0052 4FF00076 		mov	r6, #33554432
 849 0056 20E0     		b	.L57
 850              	.L99:
 518:Drivers/STM32F1xx_HAL_Driver/Src/stm32f1xx_hal_dma.c ****     return HAL_ERROR;
 851              		.loc 1 518 5 is_stmt 1 view .LVU282
 518:Drivers/STM32F1xx_HAL_Driver/Src/stm32f1xx_hal_dma.c ****     return HAL_ERROR;
 852              		.loc 1 518 21 is_stmt 0 view .LVU283
 853 0058 4FF48073 		mov	r3, #256
 854 005c 8363     		str	r3, [r0, #56]
 519:Drivers/STM32F1xx_HAL_Driver/Src/stm32f1xx_hal_dma.c ****   }
 855              		.loc 1 519 5 is_stmt 1 view .LVU284
 519:Drivers/STM32F1xx_HAL_Driver/Src/stm32f1xx_hal_dma.c ****   }
 856              		.loc 1 519 12 is_stmt 0 view .LVU285
 857 005e 0120     		movs	r0, #1
 858              	.LVL54:
ARM GAS  /tmp/cc2tQgYP.s 			page 36


 519:Drivers/STM32F1xx_HAL_Driver/Src/stm32f1xx_hal_dma.c ****   }
 859              		.loc 1 519 12 view .LVU286
 860 0060 DBE7     		b	.L54
 861              	.LVL55:
 862              	.L100:
 526:Drivers/STM32F1xx_HAL_Driver/Src/stm32f1xx_hal_dma.c ****   }
 863              		.loc 1 526 10 discriminator 11 view .LVU287
 864 0062 4FF40016 		mov	r6, #2097152
 865 0066 18E0     		b	.L57
 866              	.L56:
 531:Drivers/STM32F1xx_HAL_Driver/Src/stm32f1xx_hal_dma.c ****   }
 867              		.loc 1 531 5 is_stmt 1 view .LVU288
 531:Drivers/STM32F1xx_HAL_Driver/Src/stm32f1xx_hal_dma.c ****   }
 868              		.loc 1 531 12 is_stmt 0 view .LVU289
 869 0068 6E4A     		ldr	r2, .L108
 870 006a 9342     		cmp	r3, r2
 871 006c 24D0     		beq	.L74
 531:Drivers/STM32F1xx_HAL_Driver/Src/stm32f1xx_hal_dma.c ****   }
 872              		.loc 1 531 12 discriminator 1 view .LVU290
 873 006e 1432     		adds	r2, r2, #20
 874 0070 9342     		cmp	r3, r2
 875 0072 23D0     		beq	.L75
 531:Drivers/STM32F1xx_HAL_Driver/Src/stm32f1xx_hal_dma.c ****   }
 876              		.loc 1 531 12 discriminator 3 view .LVU291
 877 0074 1432     		adds	r2, r2, #20
 878 0076 9342     		cmp	r3, r2
 879 0078 22D0     		beq	.L76
 531:Drivers/STM32F1xx_HAL_Driver/Src/stm32f1xx_hal_dma.c ****   }
 880              		.loc 1 531 12 discriminator 5 view .LVU292
 881 007a 1432     		adds	r2, r2, #20
 882 007c 9342     		cmp	r3, r2
 883 007e 22D0     		beq	.L77
 531:Drivers/STM32F1xx_HAL_Driver/Src/stm32f1xx_hal_dma.c ****   }
 884              		.loc 1 531 12 discriminator 7 view .LVU293
 885 0080 1432     		adds	r2, r2, #20
 886 0082 9342     		cmp	r3, r2
 887 0084 22D0     		beq	.L78
 531:Drivers/STM32F1xx_HAL_Driver/Src/stm32f1xx_hal_dma.c ****   }
 888              		.loc 1 531 12 discriminator 9 view .LVU294
 889 0086 1432     		adds	r2, r2, #20
 890 0088 9342     		cmp	r3, r2
 891 008a 02D0     		beq	.L101
 531:Drivers/STM32F1xx_HAL_Driver/Src/stm32f1xx_hal_dma.c ****   }
 892              		.loc 1 531 10 discriminator 12 view .LVU295
 893 008c 4FF08066 		mov	r6, #67108864
 894 0090 03E0     		b	.L57
 895              	.L101:
 531:Drivers/STM32F1xx_HAL_Driver/Src/stm32f1xx_hal_dma.c ****   }
 896              		.loc 1 531 10 discriminator 11 view .LVU296
 897 0092 4FF48006 		mov	r6, #4194304
 898 0096 00E0     		b	.L57
 899              	.L68:
 526:Drivers/STM32F1xx_HAL_Driver/Src/stm32f1xx_hal_dma.c ****   }
 900              		.loc 1 526 10 discriminator 2 view .LVU297
 901 0098 0226     		movs	r6, #2
 902              	.L57:
 903              	.LVL56:
ARM GAS  /tmp/cc2tQgYP.s 			page 37


 535:Drivers/STM32F1xx_HAL_Driver/Src/stm32f1xx_hal_dma.c **** 
 904              		.loc 1 535 3 is_stmt 1 view .LVU298
 535:Drivers/STM32F1xx_HAL_Driver/Src/stm32f1xx_hal_dma.c **** 
 905              		.loc 1 535 15 is_stmt 0 view .LVU299
 906 009a FFF7FEFF 		bl	HAL_GetTick
 907              	.LVL57:
 535:Drivers/STM32F1xx_HAL_Driver/Src/stm32f1xx_hal_dma.c **** 
 908              		.loc 1 535 15 view .LVU300
 909 009e 8046     		mov	r8, r0
 910              	.LVL58:
 537:Drivers/STM32F1xx_HAL_Driver/Src/stm32f1xx_hal_dma.c ****   {
 911              		.loc 1 537 3 is_stmt 1 view .LVU301
 537:Drivers/STM32F1xx_HAL_Driver/Src/stm32f1xx_hal_dma.c ****   {
 912              		.loc 1 537 8 is_stmt 0 view .LVU302
 913 00a0 20E0     		b	.L61
 914              	.LVL59:
 915              	.L69:
 526:Drivers/STM32F1xx_HAL_Driver/Src/stm32f1xx_hal_dma.c ****   }
 916              		.loc 1 526 10 discriminator 4 view .LVU303
 917 00a2 2026     		movs	r6, #32
 918 00a4 F9E7     		b	.L57
 919              	.L70:
 526:Drivers/STM32F1xx_HAL_Driver/Src/stm32f1xx_hal_dma.c ****   }
 920              		.loc 1 526 10 discriminator 6 view .LVU304
 921 00a6 4FF40076 		mov	r6, #512
 922 00aa F6E7     		b	.L57
 923              	.L71:
 526:Drivers/STM32F1xx_HAL_Driver/Src/stm32f1xx_hal_dma.c ****   }
 924              		.loc 1 526 10 discriminator 8 view .LVU305
 925 00ac 4FF40056 		mov	r6, #8192
 926 00b0 F3E7     		b	.L57
 927              	.L72:
 526:Drivers/STM32F1xx_HAL_Driver/Src/stm32f1xx_hal_dma.c ****   }
 928              		.loc 1 526 10 discriminator 10 view .LVU306
 929 00b2 4FF40036 		mov	r6, #131072
 930 00b6 F0E7     		b	.L57
 931              	.L74:
 531:Drivers/STM32F1xx_HAL_Driver/Src/stm32f1xx_hal_dma.c ****   }
 932              		.loc 1 531 10 discriminator 2 view .LVU307
 933 00b8 0426     		movs	r6, #4
 934 00ba EEE7     		b	.L57
 935              	.L75:
 531:Drivers/STM32F1xx_HAL_Driver/Src/stm32f1xx_hal_dma.c ****   }
 936              		.loc 1 531 10 discriminator 4 view .LVU308
 937 00bc 4026     		movs	r6, #64
 938 00be ECE7     		b	.L57
 939              	.L76:
 531:Drivers/STM32F1xx_HAL_Driver/Src/stm32f1xx_hal_dma.c ****   }
 940              		.loc 1 531 10 discriminator 6 view .LVU309
 941 00c0 4FF48066 		mov	r6, #1024
 942 00c4 E9E7     		b	.L57
 943              	.L77:
 531:Drivers/STM32F1xx_HAL_Driver/Src/stm32f1xx_hal_dma.c ****   }
 944              		.loc 1 531 10 discriminator 8 view .LVU310
 945 00c6 4FF48046 		mov	r6, #16384
 946 00ca E6E7     		b	.L57
 947              	.L78:
ARM GAS  /tmp/cc2tQgYP.s 			page 38


 531:Drivers/STM32F1xx_HAL_Driver/Src/stm32f1xx_hal_dma.c ****   }
 948              		.loc 1 531 10 discriminator 10 view .LVU311
 949 00cc 4FF48026 		mov	r6, #262144
 950 00d0 E3E7     		b	.L57
 951              	.LVL60:
 952              	.L105:
 539:Drivers/STM32F1xx_HAL_Driver/Src/stm32f1xx_hal_dma.c ****     {
 953              		.loc 1 539 9 discriminator 11 view .LVU312
 954 00d2 4FF40003 		mov	r3, #8388608
 955 00d6 00E0     		b	.L59
 956              	.L80:
 539:Drivers/STM32F1xx_HAL_Driver/Src/stm32f1xx_hal_dma.c ****     {
 957              		.loc 1 539 9 discriminator 2 view .LVU313
 958 00d8 0823     		movs	r3, #8
 959              	.L59:
 539:Drivers/STM32F1xx_HAL_Driver/Src/stm32f1xx_hal_dma.c ****     {
 960              		.loc 1 539 7 discriminator 13 view .LVU314
 961 00da 1A42     		tst	r2, r3
 962 00dc 29D1     		bne	.L102
 558:Drivers/STM32F1xx_HAL_Driver/Src/stm32f1xx_hal_dma.c ****     {
 963              		.loc 1 558 5 is_stmt 1 view .LVU315
 558:Drivers/STM32F1xx_HAL_Driver/Src/stm32f1xx_hal_dma.c ****     {
 964              		.loc 1 558 7 is_stmt 0 view .LVU316
 965 00de B5F1FF3F 		cmp	r5, #-1
 966 00e2 35D1     		bne	.L103
 967              	.L61:
 537:Drivers/STM32F1xx_HAL_Driver/Src/stm32f1xx_hal_dma.c ****   {
 968              		.loc 1 537 40 is_stmt 1 view .LVU317
 537:Drivers/STM32F1xx_HAL_Driver/Src/stm32f1xx_hal_dma.c ****   {
 969              		.loc 1 537 9 is_stmt 0 view .LVU318
 970 00e4 504B     		ldr	r3, .L108+4
 971 00e6 1B68     		ldr	r3, [r3]
 537:Drivers/STM32F1xx_HAL_Driver/Src/stm32f1xx_hal_dma.c ****   {
 972              		.loc 1 537 40 view .LVU319
 973 00e8 3342     		tst	r3, r6
 974 00ea 43D1     		bne	.L104
 539:Drivers/STM32F1xx_HAL_Driver/Src/stm32f1xx_hal_dma.c ****     {
 975              		.loc 1 539 5 is_stmt 1 view .LVU320
 539:Drivers/STM32F1xx_HAL_Driver/Src/stm32f1xx_hal_dma.c ****     {
 976              		.loc 1 539 9 is_stmt 0 view .LVU321
 977 00ec 4E4B     		ldr	r3, .L108+4
 978 00ee 1A68     		ldr	r2, [r3]
 979 00f0 2368     		ldr	r3, [r4]
 980 00f2 4C49     		ldr	r1, .L108
 981 00f4 8B42     		cmp	r3, r1
 982 00f6 EFD0     		beq	.L80
 539:Drivers/STM32F1xx_HAL_Driver/Src/stm32f1xx_hal_dma.c ****     {
 983              		.loc 1 539 9 discriminator 1 view .LVU322
 984 00f8 1431     		adds	r1, r1, #20
 985 00fa 8B42     		cmp	r3, r1
 986 00fc 0ED0     		beq	.L81
 539:Drivers/STM32F1xx_HAL_Driver/Src/stm32f1xx_hal_dma.c ****     {
 987              		.loc 1 539 9 discriminator 3 view .LVU323
 988 00fe 1431     		adds	r1, r1, #20
 989 0100 8B42     		cmp	r3, r1
 990 0102 0DD0     		beq	.L82
 539:Drivers/STM32F1xx_HAL_Driver/Src/stm32f1xx_hal_dma.c ****     {
ARM GAS  /tmp/cc2tQgYP.s 			page 39


 991              		.loc 1 539 9 discriminator 5 view .LVU324
 992 0104 1431     		adds	r1, r1, #20
 993 0106 8B42     		cmp	r3, r1
 994 0108 0DD0     		beq	.L83
 539:Drivers/STM32F1xx_HAL_Driver/Src/stm32f1xx_hal_dma.c ****     {
 995              		.loc 1 539 9 discriminator 7 view .LVU325
 996 010a 1431     		adds	r1, r1, #20
 997 010c 8B42     		cmp	r3, r1
 998 010e 0DD0     		beq	.L84
 539:Drivers/STM32F1xx_HAL_Driver/Src/stm32f1xx_hal_dma.c ****     {
 999              		.loc 1 539 9 discriminator 9 view .LVU326
 1000 0110 1431     		adds	r1, r1, #20
 1001 0112 8B42     		cmp	r3, r1
 1002 0114 DDD0     		beq	.L105
 539:Drivers/STM32F1xx_HAL_Driver/Src/stm32f1xx_hal_dma.c ****     {
 1003              		.loc 1 539 9 discriminator 12 view .LVU327
 1004 0116 4FF00063 		mov	r3, #134217728
 1005 011a DEE7     		b	.L59
 1006              	.L81:
 539:Drivers/STM32F1xx_HAL_Driver/Src/stm32f1xx_hal_dma.c ****     {
 1007              		.loc 1 539 9 discriminator 4 view .LVU328
 1008 011c 8023     		movs	r3, #128
 1009 011e DCE7     		b	.L59
 1010              	.L82:
 539:Drivers/STM32F1xx_HAL_Driver/Src/stm32f1xx_hal_dma.c ****     {
 1011              		.loc 1 539 9 discriminator 6 view .LVU329
 1012 0120 4FF40063 		mov	r3, #2048
 1013 0124 D9E7     		b	.L59
 1014              	.L83:
 539:Drivers/STM32F1xx_HAL_Driver/Src/stm32f1xx_hal_dma.c ****     {
 1015              		.loc 1 539 9 discriminator 8 view .LVU330
 1016 0126 4FF40043 		mov	r3, #32768
 1017 012a D6E7     		b	.L59
 1018              	.L84:
 539:Drivers/STM32F1xx_HAL_Driver/Src/stm32f1xx_hal_dma.c ****     {
 1019              		.loc 1 539 9 discriminator 10 view .LVU331
 1020 012c 4FF40023 		mov	r3, #524288
 1021 0130 D3E7     		b	.L59
 1022              	.L102:
 544:Drivers/STM32F1xx_HAL_Driver/Src/stm32f1xx_hal_dma.c **** 
 1023              		.loc 1 544 7 is_stmt 1 view .LVU332
 544:Drivers/STM32F1xx_HAL_Driver/Src/stm32f1xx_hal_dma.c **** 
 1024              		.loc 1 544 57 is_stmt 0 view .LVU333
 1025 0132 236C     		ldr	r3, [r4, #64]
 544:Drivers/STM32F1xx_HAL_Driver/Src/stm32f1xx_hal_dma.c **** 
 1026              		.loc 1 544 11 view .LVU334
 1027 0134 E26B     		ldr	r2, [r4, #60]
 544:Drivers/STM32F1xx_HAL_Driver/Src/stm32f1xx_hal_dma.c **** 
 1028              		.loc 1 544 50 view .LVU335
 1029 0136 0120     		movs	r0, #1
 1030 0138 00FA03F3 		lsl	r3, r0, r3
 544:Drivers/STM32F1xx_HAL_Driver/Src/stm32f1xx_hal_dma.c **** 
 1031              		.loc 1 544 34 view .LVU336
 1032 013c 5360     		str	r3, [r2, #4]
 547:Drivers/STM32F1xx_HAL_Driver/Src/stm32f1xx_hal_dma.c **** 
 1033              		.loc 1 547 7 is_stmt 1 view .LVU337
 1034 013e A36B     		ldr	r3, [r4, #56]
ARM GAS  /tmp/cc2tQgYP.s 			page 40


 1035 0140 0343     		orrs	r3, r3, r0
 1036 0142 A363     		str	r3, [r4, #56]
 550:Drivers/STM32F1xx_HAL_Driver/Src/stm32f1xx_hal_dma.c **** 
 1037              		.loc 1 550 7 view .LVU338
 550:Drivers/STM32F1xx_HAL_Driver/Src/stm32f1xx_hal_dma.c **** 
 1038              		.loc 1 550 18 is_stmt 0 view .LVU339
 1039 0144 84F82100 		strb	r0, [r4, #33]
 553:Drivers/STM32F1xx_HAL_Driver/Src/stm32f1xx_hal_dma.c **** 
 1040              		.loc 1 553 7 is_stmt 1 view .LVU340
 553:Drivers/STM32F1xx_HAL_Driver/Src/stm32f1xx_hal_dma.c **** 
 1041              		.loc 1 553 7 view .LVU341
 1042 0148 0023     		movs	r3, #0
 1043 014a 84F82030 		strb	r3, [r4, #32]
 553:Drivers/STM32F1xx_HAL_Driver/Src/stm32f1xx_hal_dma.c **** 
 1044              		.loc 1 553 7 view .LVU342
 555:Drivers/STM32F1xx_HAL_Driver/Src/stm32f1xx_hal_dma.c ****     }
 1045              		.loc 1 555 7 view .LVU343
 555:Drivers/STM32F1xx_HAL_Driver/Src/stm32f1xx_hal_dma.c ****     }
 1046              		.loc 1 555 14 is_stmt 0 view .LVU344
 1047 014e 64E7     		b	.L54
 1048              	.L103:
 560:Drivers/STM32F1xx_HAL_Driver/Src/stm32f1xx_hal_dma.c ****       {
 1049              		.loc 1 560 7 is_stmt 1 view .LVU345
 560:Drivers/STM32F1xx_HAL_Driver/Src/stm32f1xx_hal_dma.c ****       {
 1050              		.loc 1 560 9 is_stmt 0 view .LVU346
 1051 0150 2DB1     		cbz	r5, .L62
 560:Drivers/STM32F1xx_HAL_Driver/Src/stm32f1xx_hal_dma.c ****       {
 1052              		.loc 1 560 31 discriminator 1 view .LVU347
 1053 0152 FFF7FEFF 		bl	HAL_GetTick
 1054              	.LVL61:
 560:Drivers/STM32F1xx_HAL_Driver/Src/stm32f1xx_hal_dma.c ****       {
 1055              		.loc 1 560 45 discriminator 2 view .LVU348
 1056 0156 4346     		mov	r3, r8
 1057 0158 C01A     		subs	r0, r0, r3
 560:Drivers/STM32F1xx_HAL_Driver/Src/stm32f1xx_hal_dma.c ****       {
 1058              		.loc 1 560 26 discriminator 2 view .LVU349
 1059 015a A842     		cmp	r0, r5
 1060 015c C2D9     		bls	.L61
 1061              	.L62:
 563:Drivers/STM32F1xx_HAL_Driver/Src/stm32f1xx_hal_dma.c **** 
 1062              		.loc 1 563 9 is_stmt 1 view .LVU350
 1063 015e A36B     		ldr	r3, [r4, #56]
 1064 0160 43F02003 		orr	r3, r3, #32
 1065 0164 A363     		str	r3, [r4, #56]
 566:Drivers/STM32F1xx_HAL_Driver/Src/stm32f1xx_hal_dma.c **** 
 1066              		.loc 1 566 9 view .LVU351
 566:Drivers/STM32F1xx_HAL_Driver/Src/stm32f1xx_hal_dma.c **** 
 1067              		.loc 1 566 21 is_stmt 0 view .LVU352
 1068 0166 0120     		movs	r0, #1
 1069 0168 84F82100 		strb	r0, [r4, #33]
 569:Drivers/STM32F1xx_HAL_Driver/Src/stm32f1xx_hal_dma.c **** 
 1070              		.loc 1 569 9 is_stmt 1 view .LVU353
 569:Drivers/STM32F1xx_HAL_Driver/Src/stm32f1xx_hal_dma.c **** 
 1071              		.loc 1 569 9 view .LVU354
 1072 016c 0023     		movs	r3, #0
 1073 016e 84F82030 		strb	r3, [r4, #32]
 569:Drivers/STM32F1xx_HAL_Driver/Src/stm32f1xx_hal_dma.c **** 
ARM GAS  /tmp/cc2tQgYP.s 			page 41


 1074              		.loc 1 569 9 view .LVU355
 571:Drivers/STM32F1xx_HAL_Driver/Src/stm32f1xx_hal_dma.c ****       }
 1075              		.loc 1 571 9 view .LVU356
 571:Drivers/STM32F1xx_HAL_Driver/Src/stm32f1xx_hal_dma.c ****       }
 1076              		.loc 1 571 16 is_stmt 0 view .LVU357
 1077 0172 52E7     		b	.L54
 1078              	.L104:
 576:Drivers/STM32F1xx_HAL_Driver/Src/stm32f1xx_hal_dma.c ****   {
 1079              		.loc 1 576 3 is_stmt 1 view .LVU358
 576:Drivers/STM32F1xx_HAL_Driver/Src/stm32f1xx_hal_dma.c ****   {
 1080              		.loc 1 576 5 is_stmt 0 view .LVU359
 1081 0174 6FBB     		cbnz	r7, .L64
 579:Drivers/STM32F1xx_HAL_Driver/Src/stm32f1xx_hal_dma.c **** 
 1082              		.loc 1 579 5 is_stmt 1 view .LVU360
 1083 0176 2368     		ldr	r3, [r4]
 1084 0178 2A4A     		ldr	r2, .L108
 1085 017a 9342     		cmp	r3, r2
 1086 017c 14D0     		beq	.L86
 579:Drivers/STM32F1xx_HAL_Driver/Src/stm32f1xx_hal_dma.c **** 
 1087              		.loc 1 579 5 is_stmt 0 discriminator 1 view .LVU361
 1088 017e 1432     		adds	r2, r2, #20
 1089 0180 9342     		cmp	r3, r2
 1090 0182 1BD0     		beq	.L87
 579:Drivers/STM32F1xx_HAL_Driver/Src/stm32f1xx_hal_dma.c **** 
 1091              		.loc 1 579 5 discriminator 3 view .LVU362
 1092 0184 1432     		adds	r2, r2, #20
 1093 0186 9342     		cmp	r3, r2
 1094 0188 1AD0     		beq	.L88
 579:Drivers/STM32F1xx_HAL_Driver/Src/stm32f1xx_hal_dma.c **** 
 1095              		.loc 1 579 5 discriminator 5 view .LVU363
 1096 018a 1432     		adds	r2, r2, #20
 1097 018c 9342     		cmp	r3, r2
 1098 018e 1AD0     		beq	.L89
 579:Drivers/STM32F1xx_HAL_Driver/Src/stm32f1xx_hal_dma.c **** 
 1099              		.loc 1 579 5 discriminator 7 view .LVU364
 1100 0190 1432     		adds	r2, r2, #20
 1101 0192 9342     		cmp	r3, r2
 1102 0194 1AD0     		beq	.L90
 579:Drivers/STM32F1xx_HAL_Driver/Src/stm32f1xx_hal_dma.c **** 
 1103              		.loc 1 579 5 discriminator 9 view .LVU365
 1104 0196 1432     		adds	r2, r2, #20
 1105 0198 9342     		cmp	r3, r2
 1106 019a 02D0     		beq	.L106
 579:Drivers/STM32F1xx_HAL_Driver/Src/stm32f1xx_hal_dma.c **** 
 1107              		.loc 1 579 5 discriminator 12 view .LVU366
 1108 019c 4FF00072 		mov	r2, #33554432
 1109 01a0 03E0     		b	.L65
 1110              	.L106:
 579:Drivers/STM32F1xx_HAL_Driver/Src/stm32f1xx_hal_dma.c **** 
 1111              		.loc 1 579 5 discriminator 11 view .LVU367
 1112 01a2 4FF40012 		mov	r2, #2097152
 1113 01a6 00E0     		b	.L65
 1114              	.L86:
 579:Drivers/STM32F1xx_HAL_Driver/Src/stm32f1xx_hal_dma.c **** 
 1115              		.loc 1 579 5 discriminator 2 view .LVU368
 1116 01a8 0222     		movs	r2, #2
 1117              	.L65:
ARM GAS  /tmp/cc2tQgYP.s 			page 42


 579:Drivers/STM32F1xx_HAL_Driver/Src/stm32f1xx_hal_dma.c **** 
 1118              		.loc 1 579 5 discriminator 13 view .LVU369
 1119 01aa 1F4B     		ldr	r3, .L108+4
 1120 01ac 5A60     		str	r2, [r3, #4]
 583:Drivers/STM32F1xx_HAL_Driver/Src/stm32f1xx_hal_dma.c ****   }
 1121              		.loc 1 583 5 is_stmt 1 view .LVU370
 583:Drivers/STM32F1xx_HAL_Driver/Src/stm32f1xx_hal_dma.c ****   }
 1122              		.loc 1 583 17 is_stmt 0 view .LVU371
 1123 01ae 0123     		movs	r3, #1
 1124 01b0 84F82130 		strb	r3, [r4, #33]
 1125              	.L66:
 592:Drivers/STM32F1xx_HAL_Driver/Src/stm32f1xx_hal_dma.c **** 
 1126              		.loc 1 592 3 is_stmt 1 view .LVU372
 592:Drivers/STM32F1xx_HAL_Driver/Src/stm32f1xx_hal_dma.c **** 
 1127              		.loc 1 592 3 view .LVU373
 1128 01b4 0020     		movs	r0, #0
 1129 01b6 84F82000 		strb	r0, [r4, #32]
 592:Drivers/STM32F1xx_HAL_Driver/Src/stm32f1xx_hal_dma.c **** 
 1130              		.loc 1 592 3 view .LVU374
 594:Drivers/STM32F1xx_HAL_Driver/Src/stm32f1xx_hal_dma.c **** }
 1131              		.loc 1 594 3 view .LVU375
 594:Drivers/STM32F1xx_HAL_Driver/Src/stm32f1xx_hal_dma.c **** }
 1132              		.loc 1 594 10 is_stmt 0 view .LVU376
 1133 01ba 2EE7     		b	.L54
 1134              	.L87:
 579:Drivers/STM32F1xx_HAL_Driver/Src/stm32f1xx_hal_dma.c **** 
 1135              		.loc 1 579 5 discriminator 4 view .LVU377
 1136 01bc 2022     		movs	r2, #32
 1137 01be F4E7     		b	.L65
 1138              	.L88:
 579:Drivers/STM32F1xx_HAL_Driver/Src/stm32f1xx_hal_dma.c **** 
 1139              		.loc 1 579 5 discriminator 6 view .LVU378
 1140 01c0 4FF40072 		mov	r2, #512
 1141 01c4 F1E7     		b	.L65
 1142              	.L89:
 579:Drivers/STM32F1xx_HAL_Driver/Src/stm32f1xx_hal_dma.c **** 
 1143              		.loc 1 579 5 discriminator 8 view .LVU379
 1144 01c6 4FF40052 		mov	r2, #8192
 1145 01ca EEE7     		b	.L65
 1146              	.L90:
 579:Drivers/STM32F1xx_HAL_Driver/Src/stm32f1xx_hal_dma.c **** 
 1147              		.loc 1 579 5 discriminator 10 view .LVU380
 1148 01cc 4FF40032 		mov	r2, #131072
 1149 01d0 EBE7     		b	.L65
 1150              	.L64:
 588:Drivers/STM32F1xx_HAL_Driver/Src/stm32f1xx_hal_dma.c ****   }
 1151              		.loc 1 588 5 is_stmt 1 view .LVU381
 1152 01d2 2368     		ldr	r3, [r4]
 1153 01d4 134A     		ldr	r2, .L108
 1154 01d6 9342     		cmp	r3, r2
 1155 01d8 14D0     		beq	.L92
 588:Drivers/STM32F1xx_HAL_Driver/Src/stm32f1xx_hal_dma.c ****   }
 1156              		.loc 1 588 5 is_stmt 0 discriminator 1 view .LVU382
 1157 01da 1432     		adds	r2, r2, #20
 1158 01dc 9342     		cmp	r3, r2
 1159 01de 15D0     		beq	.L93
 588:Drivers/STM32F1xx_HAL_Driver/Src/stm32f1xx_hal_dma.c ****   }
ARM GAS  /tmp/cc2tQgYP.s 			page 43


 1160              		.loc 1 588 5 discriminator 3 view .LVU383
 1161 01e0 1432     		adds	r2, r2, #20
 1162 01e2 9342     		cmp	r3, r2
 1163 01e4 14D0     		beq	.L94
 588:Drivers/STM32F1xx_HAL_Driver/Src/stm32f1xx_hal_dma.c ****   }
 1164              		.loc 1 588 5 discriminator 5 view .LVU384
 1165 01e6 1432     		adds	r2, r2, #20
 1166 01e8 9342     		cmp	r3, r2
 1167 01ea 14D0     		beq	.L95
 588:Drivers/STM32F1xx_HAL_Driver/Src/stm32f1xx_hal_dma.c ****   }
 1168              		.loc 1 588 5 discriminator 7 view .LVU385
 1169 01ec 1432     		adds	r2, r2, #20
 1170 01ee 9342     		cmp	r3, r2
 1171 01f0 14D0     		beq	.L96
 588:Drivers/STM32F1xx_HAL_Driver/Src/stm32f1xx_hal_dma.c ****   }
 1172              		.loc 1 588 5 discriminator 9 view .LVU386
 1173 01f2 1432     		adds	r2, r2, #20
 1174 01f4 9342     		cmp	r3, r2
 1175 01f6 02D0     		beq	.L107
 588:Drivers/STM32F1xx_HAL_Driver/Src/stm32f1xx_hal_dma.c ****   }
 1176              		.loc 1 588 5 discriminator 12 view .LVU387
 1177 01f8 4FF08062 		mov	r2, #67108864
 1178 01fc 03E0     		b	.L67
 1179              	.L107:
 588:Drivers/STM32F1xx_HAL_Driver/Src/stm32f1xx_hal_dma.c ****   }
 1180              		.loc 1 588 5 discriminator 11 view .LVU388
 1181 01fe 4FF48002 		mov	r2, #4194304
 1182 0202 00E0     		b	.L67
 1183              	.L92:
 588:Drivers/STM32F1xx_HAL_Driver/Src/stm32f1xx_hal_dma.c ****   }
 1184              		.loc 1 588 5 discriminator 2 view .LVU389
 1185 0204 0422     		movs	r2, #4
 1186              	.L67:
 588:Drivers/STM32F1xx_HAL_Driver/Src/stm32f1xx_hal_dma.c ****   }
 1187              		.loc 1 588 5 discriminator 13 view .LVU390
 1188 0206 084B     		ldr	r3, .L108+4
 1189 0208 5A60     		str	r2, [r3, #4]
 1190 020a D3E7     		b	.L66
 1191              	.L93:
 588:Drivers/STM32F1xx_HAL_Driver/Src/stm32f1xx_hal_dma.c ****   }
 1192              		.loc 1 588 5 discriminator 4 view .LVU391
 1193 020c 4022     		movs	r2, #64
 1194 020e FAE7     		b	.L67
 1195              	.L94:
 588:Drivers/STM32F1xx_HAL_Driver/Src/stm32f1xx_hal_dma.c ****   }
 1196              		.loc 1 588 5 discriminator 6 view .LVU392
 1197 0210 4FF48062 		mov	r2, #1024
 1198 0214 F7E7     		b	.L67
 1199              	.L95:
 588:Drivers/STM32F1xx_HAL_Driver/Src/stm32f1xx_hal_dma.c ****   }
 1200              		.loc 1 588 5 discriminator 8 view .LVU393
 1201 0216 4FF48042 		mov	r2, #16384
 1202 021a F4E7     		b	.L67
 1203              	.L96:
 588:Drivers/STM32F1xx_HAL_Driver/Src/stm32f1xx_hal_dma.c ****   }
 1204              		.loc 1 588 5 discriminator 10 view .LVU394
 1205 021c 4FF48022 		mov	r2, #262144
ARM GAS  /tmp/cc2tQgYP.s 			page 44


 1206 0220 F1E7     		b	.L67
 1207              	.L109:
 1208 0222 00BF     		.align	2
 1209              	.L108:
 1210 0224 08000240 		.word	1073872904
 1211 0228 00000240 		.word	1073872896
 1212              		.cfi_endproc
 1213              	.LFE71:
 1215              		.section	.text.HAL_DMA_IRQHandler,"ax",%progbits
 1216              		.align	1
 1217              		.global	HAL_DMA_IRQHandler
 1218              		.syntax unified
 1219              		.thumb
 1220              		.thumb_func
 1222              	HAL_DMA_IRQHandler:
 1223              	.LVL62:
 1224              	.LFB72:
 604:Drivers/STM32F1xx_HAL_Driver/Src/stm32f1xx_hal_dma.c ****   uint32_t flag_it = hdma->DmaBaseAddress->ISR;
 1225              		.loc 1 604 1 is_stmt 1 view -0
 1226              		.cfi_startproc
 1227              		@ args = 0, pretend = 0, frame = 0
 1228              		@ frame_needed = 0, uses_anonymous_args = 0
 604:Drivers/STM32F1xx_HAL_Driver/Src/stm32f1xx_hal_dma.c ****   uint32_t flag_it = hdma->DmaBaseAddress->ISR;
 1229              		.loc 1 604 1 is_stmt 0 view .LVU396
 1230 0000 08B5     		push	{r3, lr}
 1231              	.LCFI7:
 1232              		.cfi_def_cfa_offset 8
 1233              		.cfi_offset 3, -8
 1234              		.cfi_offset 14, -4
 605:Drivers/STM32F1xx_HAL_Driver/Src/stm32f1xx_hal_dma.c ****   uint32_t source_it = hdma->Instance->CCR;
 1235              		.loc 1 605 3 is_stmt 1 view .LVU397
 605:Drivers/STM32F1xx_HAL_Driver/Src/stm32f1xx_hal_dma.c ****   uint32_t source_it = hdma->Instance->CCR;
 1236              		.loc 1 605 26 is_stmt 0 view .LVU398
 1237 0002 C36B     		ldr	r3, [r0, #60]
 605:Drivers/STM32F1xx_HAL_Driver/Src/stm32f1xx_hal_dma.c ****   uint32_t source_it = hdma->Instance->CCR;
 1238              		.loc 1 605 12 view .LVU399
 1239 0004 1A68     		ldr	r2, [r3]
 1240              	.LVL63:
 606:Drivers/STM32F1xx_HAL_Driver/Src/stm32f1xx_hal_dma.c ****   
 1241              		.loc 1 606 3 is_stmt 1 view .LVU400
 606:Drivers/STM32F1xx_HAL_Driver/Src/stm32f1xx_hal_dma.c ****   
 1242              		.loc 1 606 28 is_stmt 0 view .LVU401
 1243 0006 D0F800C0 		ldr	ip, [r0]
 606:Drivers/STM32F1xx_HAL_Driver/Src/stm32f1xx_hal_dma.c ****   
 1244              		.loc 1 606 12 view .LVU402
 1245 000a DCF800E0 		ldr	lr, [ip]
 1246              	.LVL64:
 609:Drivers/STM32F1xx_HAL_Driver/Src/stm32f1xx_hal_dma.c ****   {
 1247              		.loc 1 609 3 is_stmt 1 view .LVU403
 609:Drivers/STM32F1xx_HAL_Driver/Src/stm32f1xx_hal_dma.c ****   {
 1248              		.loc 1 609 40 is_stmt 0 view .LVU404
 1249 000e 016C     		ldr	r1, [r0, #64]
 609:Drivers/STM32F1xx_HAL_Driver/Src/stm32f1xx_hal_dma.c ****   {
 1250              		.loc 1 609 33 view .LVU405
 1251 0010 0423     		movs	r3, #4
 1252 0012 8B40     		lsls	r3, r3, r1
 609:Drivers/STM32F1xx_HAL_Driver/Src/stm32f1xx_hal_dma.c ****   {
ARM GAS  /tmp/cc2tQgYP.s 			page 45


 1253              		.loc 1 609 6 view .LVU406
 1254 0014 1342     		tst	r3, r2
 1255 0016 38D0     		beq	.L111
 609:Drivers/STM32F1xx_HAL_Driver/Src/stm32f1xx_hal_dma.c ****   {
 1256              		.loc 1 609 67 discriminator 1 view .LVU407
 1257 0018 1EF0040F 		tst	lr, #4
 1258 001c 35D0     		beq	.L111
 612:Drivers/STM32F1xx_HAL_Driver/Src/stm32f1xx_hal_dma.c ****     {
 1259              		.loc 1 612 5 is_stmt 1 view .LVU408
 612:Drivers/STM32F1xx_HAL_Driver/Src/stm32f1xx_hal_dma.c ****     {
 1260              		.loc 1 612 23 is_stmt 0 view .LVU409
 1261 001e DCF80030 		ldr	r3, [ip]
 612:Drivers/STM32F1xx_HAL_Driver/Src/stm32f1xx_hal_dma.c ****     {
 1262              		.loc 1 612 7 view .LVU410
 1263 0022 13F0200F 		tst	r3, #32
 1264 0026 05D1     		bne	.L112
 615:Drivers/STM32F1xx_HAL_Driver/Src/stm32f1xx_hal_dma.c ****     }
 1265              		.loc 1 615 7 is_stmt 1 view .LVU411
 1266 0028 DCF80030 		ldr	r3, [ip]
 1267 002c 23F00403 		bic	r3, r3, #4
 1268 0030 CCF80030 		str	r3, [ip]
 1269              	.L112:
 618:Drivers/STM32F1xx_HAL_Driver/Src/stm32f1xx_hal_dma.c **** 
 1270              		.loc 1 618 5 view .LVU412
 1271 0034 0368     		ldr	r3, [r0]
 1272 0036 464A     		ldr	r2, .L133
 1273              	.LVL65:
 618:Drivers/STM32F1xx_HAL_Driver/Src/stm32f1xx_hal_dma.c **** 
 1274              		.loc 1 618 5 is_stmt 0 view .LVU413
 1275 0038 9342     		cmp	r3, r2
 1276 003a 14D0     		beq	.L118
 618:Drivers/STM32F1xx_HAL_Driver/Src/stm32f1xx_hal_dma.c **** 
 1277              		.loc 1 618 5 discriminator 1 view .LVU414
 1278 003c 1432     		adds	r2, r2, #20
 1279 003e 9342     		cmp	r3, r2
 1280 0040 18D0     		beq	.L119
 618:Drivers/STM32F1xx_HAL_Driver/Src/stm32f1xx_hal_dma.c **** 
 1281              		.loc 1 618 5 discriminator 3 view .LVU415
 1282 0042 1432     		adds	r2, r2, #20
 1283 0044 9342     		cmp	r3, r2
 1284 0046 17D0     		beq	.L120
 618:Drivers/STM32F1xx_HAL_Driver/Src/stm32f1xx_hal_dma.c **** 
 1285              		.loc 1 618 5 discriminator 5 view .LVU416
 1286 0048 1432     		adds	r2, r2, #20
 1287 004a 9342     		cmp	r3, r2
 1288 004c 17D0     		beq	.L121
 618:Drivers/STM32F1xx_HAL_Driver/Src/stm32f1xx_hal_dma.c **** 
 1289              		.loc 1 618 5 discriminator 7 view .LVU417
 1290 004e 1432     		adds	r2, r2, #20
 1291 0050 9342     		cmp	r3, r2
 1292 0052 17D0     		beq	.L122
 618:Drivers/STM32F1xx_HAL_Driver/Src/stm32f1xx_hal_dma.c **** 
 1293              		.loc 1 618 5 discriminator 9 view .LVU418
 1294 0054 1432     		adds	r2, r2, #20
 1295 0056 9342     		cmp	r3, r2
 1296 0058 02D0     		beq	.L131
 618:Drivers/STM32F1xx_HAL_Driver/Src/stm32f1xx_hal_dma.c **** 
ARM GAS  /tmp/cc2tQgYP.s 			page 46


 1297              		.loc 1 618 5 discriminator 12 view .LVU419
 1298 005a 4FF08062 		mov	r2, #67108864
 1299 005e 03E0     		b	.L113
 1300              	.L131:
 618:Drivers/STM32F1xx_HAL_Driver/Src/stm32f1xx_hal_dma.c **** 
 1301              		.loc 1 618 5 discriminator 11 view .LVU420
 1302 0060 4FF48002 		mov	r2, #4194304
 1303 0064 00E0     		b	.L113
 1304              	.L118:
 618:Drivers/STM32F1xx_HAL_Driver/Src/stm32f1xx_hal_dma.c **** 
 1305              		.loc 1 618 5 discriminator 2 view .LVU421
 1306 0066 0422     		movs	r2, #4
 1307              	.L113:
 618:Drivers/STM32F1xx_HAL_Driver/Src/stm32f1xx_hal_dma.c **** 
 1308              		.loc 1 618 5 discriminator 13 view .LVU422
 1309 0068 3A4B     		ldr	r3, .L133+4
 1310 006a 5A60     		str	r2, [r3, #4]
 623:Drivers/STM32F1xx_HAL_Driver/Src/stm32f1xx_hal_dma.c ****     {
 1311              		.loc 1 623 5 is_stmt 1 view .LVU423
 623:Drivers/STM32F1xx_HAL_Driver/Src/stm32f1xx_hal_dma.c ****     {
 1312              		.loc 1 623 12 is_stmt 0 view .LVU424
 1313 006c C36A     		ldr	r3, [r0, #44]
 623:Drivers/STM32F1xx_HAL_Driver/Src/stm32f1xx_hal_dma.c ****     {
 1314              		.loc 1 623 7 view .LVU425
 1315 006e 03B1     		cbz	r3, .L110
 626:Drivers/STM32F1xx_HAL_Driver/Src/stm32f1xx_hal_dma.c ****     }
 1316              		.loc 1 626 7 is_stmt 1 view .LVU426
 1317 0070 9847     		blx	r3
 1318              	.LVL66:
 1319              	.L110:
 681:Drivers/STM32F1xx_HAL_Driver/Src/stm32f1xx_hal_dma.c **** 
 1320              		.loc 1 681 1 is_stmt 0 view .LVU427
 1321 0072 08BD     		pop	{r3, pc}
 1322              	.LVL67:
 1323              	.L119:
 618:Drivers/STM32F1xx_HAL_Driver/Src/stm32f1xx_hal_dma.c **** 
 1324              		.loc 1 618 5 discriminator 4 view .LVU428
 1325 0074 4022     		movs	r2, #64
 1326 0076 F7E7     		b	.L113
 1327              	.L120:
 618:Drivers/STM32F1xx_HAL_Driver/Src/stm32f1xx_hal_dma.c **** 
 1328              		.loc 1 618 5 discriminator 6 view .LVU429
 1329 0078 4FF48062 		mov	r2, #1024
 1330 007c F4E7     		b	.L113
 1331              	.L121:
 618:Drivers/STM32F1xx_HAL_Driver/Src/stm32f1xx_hal_dma.c **** 
 1332              		.loc 1 618 5 discriminator 8 view .LVU430
 1333 007e 4FF48042 		mov	r2, #16384
 1334 0082 F1E7     		b	.L113
 1335              	.L122:
 618:Drivers/STM32F1xx_HAL_Driver/Src/stm32f1xx_hal_dma.c **** 
 1336              		.loc 1 618 5 discriminator 10 view .LVU431
 1337 0084 4FF48022 		mov	r2, #262144
 1338 0088 EEE7     		b	.L113
 1339              	.LVL68:
 1340              	.L111:
 631:Drivers/STM32F1xx_HAL_Driver/Src/stm32f1xx_hal_dma.c ****   {
ARM GAS  /tmp/cc2tQgYP.s 			page 47


 1341              		.loc 1 631 8 is_stmt 1 view .LVU432
 631:Drivers/STM32F1xx_HAL_Driver/Src/stm32f1xx_hal_dma.c ****   {
 1342              		.loc 1 631 38 is_stmt 0 view .LVU433
 1343 008a 0223     		movs	r3, #2
 1344 008c 8B40     		lsls	r3, r3, r1
 631:Drivers/STM32F1xx_HAL_Driver/Src/stm32f1xx_hal_dma.c ****   {
 1345              		.loc 1 631 11 view .LVU434
 1346 008e 1342     		tst	r3, r2
 1347 0090 3FD0     		beq	.L115
 631:Drivers/STM32F1xx_HAL_Driver/Src/stm32f1xx_hal_dma.c ****   {
 1348              		.loc 1 631 72 discriminator 1 view .LVU435
 1349 0092 1EF0020F 		tst	lr, #2
 1350 0096 3CD0     		beq	.L115
 633:Drivers/STM32F1xx_HAL_Driver/Src/stm32f1xx_hal_dma.c ****     {
 1351              		.loc 1 633 5 is_stmt 1 view .LVU436
 633:Drivers/STM32F1xx_HAL_Driver/Src/stm32f1xx_hal_dma.c ****     {
 1352              		.loc 1 633 23 is_stmt 0 view .LVU437
 1353 0098 DCF80030 		ldr	r3, [ip]
 633:Drivers/STM32F1xx_HAL_Driver/Src/stm32f1xx_hal_dma.c ****     {
 1354              		.loc 1 633 7 view .LVU438
 1355 009c 13F0200F 		tst	r3, #32
 1356 00a0 08D1     		bne	.L116
 636:Drivers/STM32F1xx_HAL_Driver/Src/stm32f1xx_hal_dma.c **** 
 1357              		.loc 1 636 7 is_stmt 1 view .LVU439
 1358 00a2 DCF80030 		ldr	r3, [ip]
 1359 00a6 23F00A03 		bic	r3, r3, #10
 1360 00aa CCF80030 		str	r3, [ip]
 639:Drivers/STM32F1xx_HAL_Driver/Src/stm32f1xx_hal_dma.c ****     }
 1361              		.loc 1 639 7 view .LVU440
 639:Drivers/STM32F1xx_HAL_Driver/Src/stm32f1xx_hal_dma.c ****     }
 1362              		.loc 1 639 19 is_stmt 0 view .LVU441
 1363 00ae 0123     		movs	r3, #1
 1364 00b0 80F82130 		strb	r3, [r0, #33]
 1365              	.L116:
 642:Drivers/STM32F1xx_HAL_Driver/Src/stm32f1xx_hal_dma.c **** 
 1366              		.loc 1 642 7 is_stmt 1 view .LVU442
 1367 00b4 0368     		ldr	r3, [r0]
 1368 00b6 264A     		ldr	r2, .L133
 1369              	.LVL69:
 642:Drivers/STM32F1xx_HAL_Driver/Src/stm32f1xx_hal_dma.c **** 
 1370              		.loc 1 642 7 is_stmt 0 view .LVU443
 1371 00b8 9342     		cmp	r3, r2
 1372 00ba 14D0     		beq	.L124
 642:Drivers/STM32F1xx_HAL_Driver/Src/stm32f1xx_hal_dma.c **** 
 1373              		.loc 1 642 7 discriminator 1 view .LVU444
 1374 00bc 1432     		adds	r2, r2, #20
 1375 00be 9342     		cmp	r3, r2
 1376 00c0 1CD0     		beq	.L125
 642:Drivers/STM32F1xx_HAL_Driver/Src/stm32f1xx_hal_dma.c **** 
 1377              		.loc 1 642 7 discriminator 3 view .LVU445
 1378 00c2 1432     		adds	r2, r2, #20
 1379 00c4 9342     		cmp	r3, r2
 1380 00c6 1BD0     		beq	.L126
 642:Drivers/STM32F1xx_HAL_Driver/Src/stm32f1xx_hal_dma.c **** 
 1381              		.loc 1 642 7 discriminator 5 view .LVU446
 1382 00c8 1432     		adds	r2, r2, #20
 1383 00ca 9342     		cmp	r3, r2
ARM GAS  /tmp/cc2tQgYP.s 			page 48


 1384 00cc 1BD0     		beq	.L127
 642:Drivers/STM32F1xx_HAL_Driver/Src/stm32f1xx_hal_dma.c **** 
 1385              		.loc 1 642 7 discriminator 7 view .LVU447
 1386 00ce 1432     		adds	r2, r2, #20
 1387 00d0 9342     		cmp	r3, r2
 1388 00d2 1BD0     		beq	.L128
 642:Drivers/STM32F1xx_HAL_Driver/Src/stm32f1xx_hal_dma.c **** 
 1389              		.loc 1 642 7 discriminator 9 view .LVU448
 1390 00d4 1432     		adds	r2, r2, #20
 1391 00d6 9342     		cmp	r3, r2
 1392 00d8 02D0     		beq	.L132
 642:Drivers/STM32F1xx_HAL_Driver/Src/stm32f1xx_hal_dma.c **** 
 1393              		.loc 1 642 7 discriminator 12 view .LVU449
 1394 00da 4FF00072 		mov	r2, #33554432
 1395 00de 03E0     		b	.L117
 1396              	.L132:
 642:Drivers/STM32F1xx_HAL_Driver/Src/stm32f1xx_hal_dma.c **** 
 1397              		.loc 1 642 7 discriminator 11 view .LVU450
 1398 00e0 4FF40012 		mov	r2, #2097152
 1399 00e4 00E0     		b	.L117
 1400              	.L124:
 642:Drivers/STM32F1xx_HAL_Driver/Src/stm32f1xx_hal_dma.c **** 
 1401              		.loc 1 642 7 discriminator 2 view .LVU451
 1402 00e6 0222     		movs	r2, #2
 1403              	.L117:
 642:Drivers/STM32F1xx_HAL_Driver/Src/stm32f1xx_hal_dma.c **** 
 1404              		.loc 1 642 7 discriminator 13 view .LVU452
 1405 00e8 1A4B     		ldr	r3, .L133+4
 1406 00ea 5A60     		str	r2, [r3, #4]
 645:Drivers/STM32F1xx_HAL_Driver/Src/stm32f1xx_hal_dma.c **** 
 1407              		.loc 1 645 5 is_stmt 1 view .LVU453
 645:Drivers/STM32F1xx_HAL_Driver/Src/stm32f1xx_hal_dma.c **** 
 1408              		.loc 1 645 5 view .LVU454
 1409 00ec 0023     		movs	r3, #0
 1410 00ee 80F82030 		strb	r3, [r0, #32]
 645:Drivers/STM32F1xx_HAL_Driver/Src/stm32f1xx_hal_dma.c **** 
 1411              		.loc 1 645 5 view .LVU455
 647:Drivers/STM32F1xx_HAL_Driver/Src/stm32f1xx_hal_dma.c ****     {
 1412              		.loc 1 647 5 view .LVU456
 647:Drivers/STM32F1xx_HAL_Driver/Src/stm32f1xx_hal_dma.c ****     {
 1413              		.loc 1 647 12 is_stmt 0 view .LVU457
 1414 00f2 836A     		ldr	r3, [r0, #40]
 647:Drivers/STM32F1xx_HAL_Driver/Src/stm32f1xx_hal_dma.c ****     {
 1415              		.loc 1 647 7 view .LVU458
 1416 00f4 002B     		cmp	r3, #0
 1417 00f6 BCD0     		beq	.L110
 650:Drivers/STM32F1xx_HAL_Driver/Src/stm32f1xx_hal_dma.c ****     }
 1418              		.loc 1 650 7 is_stmt 1 view .LVU459
 1419 00f8 9847     		blx	r3
 1420              	.LVL70:
 650:Drivers/STM32F1xx_HAL_Driver/Src/stm32f1xx_hal_dma.c ****     }
 1421              		.loc 1 650 7 is_stmt 0 view .LVU460
 1422 00fa BAE7     		b	.L110
 1423              	.LVL71:
 1424              	.L125:
 642:Drivers/STM32F1xx_HAL_Driver/Src/stm32f1xx_hal_dma.c **** 
 1425              		.loc 1 642 7 discriminator 4 view .LVU461
ARM GAS  /tmp/cc2tQgYP.s 			page 49


 1426 00fc 2022     		movs	r2, #32
 1427 00fe F3E7     		b	.L117
 1428              	.L126:
 642:Drivers/STM32F1xx_HAL_Driver/Src/stm32f1xx_hal_dma.c **** 
 1429              		.loc 1 642 7 discriminator 6 view .LVU462
 1430 0100 4FF40072 		mov	r2, #512
 1431 0104 F0E7     		b	.L117
 1432              	.L127:
 642:Drivers/STM32F1xx_HAL_Driver/Src/stm32f1xx_hal_dma.c **** 
 1433              		.loc 1 642 7 discriminator 8 view .LVU463
 1434 0106 4FF40052 		mov	r2, #8192
 1435 010a EDE7     		b	.L117
 1436              	.L128:
 642:Drivers/STM32F1xx_HAL_Driver/Src/stm32f1xx_hal_dma.c **** 
 1437              		.loc 1 642 7 discriminator 10 view .LVU464
 1438 010c 4FF40032 		mov	r2, #131072
 1439 0110 EAE7     		b	.L117
 1440              	.LVL72:
 1441              	.L115:
 655:Drivers/STM32F1xx_HAL_Driver/Src/stm32f1xx_hal_dma.c ****   {
 1442              		.loc 1 655 8 is_stmt 1 view .LVU465
 655:Drivers/STM32F1xx_HAL_Driver/Src/stm32f1xx_hal_dma.c ****   {
 1443              		.loc 1 655 48 is_stmt 0 view .LVU466
 1444 0112 0823     		movs	r3, #8
 1445 0114 8B40     		lsls	r3, r3, r1
 655:Drivers/STM32F1xx_HAL_Driver/Src/stm32f1xx_hal_dma.c ****   {
 1446              		.loc 1 655 11 view .LVU467
 1447 0116 1342     		tst	r3, r2
 1448 0118 ABD0     		beq	.L110
 655:Drivers/STM32F1xx_HAL_Driver/Src/stm32f1xx_hal_dma.c ****   {
 1449              		.loc 1 655 73 discriminator 1 view .LVU468
 1450 011a 1EF0080F 		tst	lr, #8
 1451 011e A8D0     		beq	.L110
 660:Drivers/STM32F1xx_HAL_Driver/Src/stm32f1xx_hal_dma.c **** 
 1452              		.loc 1 660 5 is_stmt 1 view .LVU469
 1453 0120 DCF80030 		ldr	r3, [ip]
 1454 0124 23F00E03 		bic	r3, r3, #14
 1455 0128 CCF80030 		str	r3, [ip]
 663:Drivers/STM32F1xx_HAL_Driver/Src/stm32f1xx_hal_dma.c **** 
 1456              		.loc 1 663 5 view .LVU470
 663:Drivers/STM32F1xx_HAL_Driver/Src/stm32f1xx_hal_dma.c **** 
 1457              		.loc 1 663 55 is_stmt 0 view .LVU471
 1458 012c 026C     		ldr	r2, [r0, #64]
 1459              	.LVL73:
 663:Drivers/STM32F1xx_HAL_Driver/Src/stm32f1xx_hal_dma.c **** 
 1460              		.loc 1 663 9 view .LVU472
 1461 012e C16B     		ldr	r1, [r0, #60]
 663:Drivers/STM32F1xx_HAL_Driver/Src/stm32f1xx_hal_dma.c **** 
 1462              		.loc 1 663 48 view .LVU473
 1463 0130 0123     		movs	r3, #1
 1464 0132 03FA02F2 		lsl	r2, r3, r2
 663:Drivers/STM32F1xx_HAL_Driver/Src/stm32f1xx_hal_dma.c **** 
 1465              		.loc 1 663 32 view .LVU474
 1466 0136 4A60     		str	r2, [r1, #4]
 666:Drivers/STM32F1xx_HAL_Driver/Src/stm32f1xx_hal_dma.c **** 
 1467              		.loc 1 666 5 is_stmt 1 view .LVU475
 666:Drivers/STM32F1xx_HAL_Driver/Src/stm32f1xx_hal_dma.c **** 
ARM GAS  /tmp/cc2tQgYP.s 			page 50


 1468              		.loc 1 666 21 is_stmt 0 view .LVU476
 1469 0138 8363     		str	r3, [r0, #56]
 669:Drivers/STM32F1xx_HAL_Driver/Src/stm32f1xx_hal_dma.c **** 
 1470              		.loc 1 669 5 is_stmt 1 view .LVU477
 669:Drivers/STM32F1xx_HAL_Driver/Src/stm32f1xx_hal_dma.c **** 
 1471              		.loc 1 669 17 is_stmt 0 view .LVU478
 1472 013a 80F82130 		strb	r3, [r0, #33]
 672:Drivers/STM32F1xx_HAL_Driver/Src/stm32f1xx_hal_dma.c **** 
 1473              		.loc 1 672 5 is_stmt 1 view .LVU479
 672:Drivers/STM32F1xx_HAL_Driver/Src/stm32f1xx_hal_dma.c **** 
 1474              		.loc 1 672 5 view .LVU480
 1475 013e 0023     		movs	r3, #0
 1476 0140 80F82030 		strb	r3, [r0, #32]
 672:Drivers/STM32F1xx_HAL_Driver/Src/stm32f1xx_hal_dma.c **** 
 1477              		.loc 1 672 5 view .LVU481
 674:Drivers/STM32F1xx_HAL_Driver/Src/stm32f1xx_hal_dma.c ****     {
 1478              		.loc 1 674 5 view .LVU482
 674:Drivers/STM32F1xx_HAL_Driver/Src/stm32f1xx_hal_dma.c ****     {
 1479              		.loc 1 674 13 is_stmt 0 view .LVU483
 1480 0144 036B     		ldr	r3, [r0, #48]
 674:Drivers/STM32F1xx_HAL_Driver/Src/stm32f1xx_hal_dma.c ****     {
 1481              		.loc 1 674 8 view .LVU484
 1482 0146 002B     		cmp	r3, #0
 1483 0148 93D0     		beq	.L110
 677:Drivers/STM32F1xx_HAL_Driver/Src/stm32f1xx_hal_dma.c ****     }
 1484              		.loc 1 677 7 is_stmt 1 view .LVU485
 1485 014a 9847     		blx	r3
 1486              	.LVL74:
 680:Drivers/STM32F1xx_HAL_Driver/Src/stm32f1xx_hal_dma.c **** }
 1487              		.loc 1 680 3 view .LVU486
 1488 014c 91E7     		b	.L110
 1489              	.L134:
 1490 014e 00BF     		.align	2
 1491              	.L133:
 1492 0150 08000240 		.word	1073872904
 1493 0154 00000240 		.word	1073872896
 1494              		.cfi_endproc
 1495              	.LFE72:
 1497              		.section	.text.HAL_DMA_RegisterCallback,"ax",%progbits
 1498              		.align	1
 1499              		.global	HAL_DMA_RegisterCallback
 1500              		.syntax unified
 1501              		.thumb
 1502              		.thumb_func
 1504              	HAL_DMA_RegisterCallback:
 1505              	.LVL75:
 1506              	.LFB73:
 694:Drivers/STM32F1xx_HAL_Driver/Src/stm32f1xx_hal_dma.c ****   HAL_StatusTypeDef status = HAL_OK;
 1507              		.loc 1 694 1 view -0
 1508              		.cfi_startproc
 1509              		@ args = 0, pretend = 0, frame = 0
 1510              		@ frame_needed = 0, uses_anonymous_args = 0
 1511              		@ link register save eliminated.
 694:Drivers/STM32F1xx_HAL_Driver/Src/stm32f1xx_hal_dma.c ****   HAL_StatusTypeDef status = HAL_OK;
 1512              		.loc 1 694 1 is_stmt 0 view .LVU488
 1513 0000 0346     		mov	r3, r0
 695:Drivers/STM32F1xx_HAL_Driver/Src/stm32f1xx_hal_dma.c ****   
ARM GAS  /tmp/cc2tQgYP.s 			page 51


 1514              		.loc 1 695 3 is_stmt 1 view .LVU489
 1515              	.LVL76:
 698:Drivers/STM32F1xx_HAL_Driver/Src/stm32f1xx_hal_dma.c ****   
 1516              		.loc 1 698 3 view .LVU490
 698:Drivers/STM32F1xx_HAL_Driver/Src/stm32f1xx_hal_dma.c ****   
 1517              		.loc 1 698 3 view .LVU491
 1518 0002 90F82000 		ldrb	r0, [r0, #32]	@ zero_extendqisi2
 1519              	.LVL77:
 698:Drivers/STM32F1xx_HAL_Driver/Src/stm32f1xx_hal_dma.c ****   
 1520              		.loc 1 698 3 is_stmt 0 view .LVU492
 1521 0006 0128     		cmp	r0, #1
 1522 0008 1FD0     		beq	.L143
 698:Drivers/STM32F1xx_HAL_Driver/Src/stm32f1xx_hal_dma.c ****   
 1523              		.loc 1 698 3 is_stmt 1 discriminator 2 view .LVU493
 1524 000a 0120     		movs	r0, #1
 1525 000c 83F82000 		strb	r0, [r3, #32]
 698:Drivers/STM32F1xx_HAL_Driver/Src/stm32f1xx_hal_dma.c ****   
 1526              		.loc 1 698 3 view .LVU494
 700:Drivers/STM32F1xx_HAL_Driver/Src/stm32f1xx_hal_dma.c ****   {
 1527              		.loc 1 700 3 view .LVU495
 700:Drivers/STM32F1xx_HAL_Driver/Src/stm32f1xx_hal_dma.c ****   {
 1528              		.loc 1 700 33 is_stmt 0 view .LVU496
 1529 0010 93F82100 		ldrb	r0, [r3, #33]	@ zero_extendqisi2
 700:Drivers/STM32F1xx_HAL_Driver/Src/stm32f1xx_hal_dma.c ****   {
 1530              		.loc 1 700 5 view .LVU497
 1531 0014 0128     		cmp	r0, #1
 1532 0016 04D0     		beq	.L145
 727:Drivers/STM32F1xx_HAL_Driver/Src/stm32f1xx_hal_dma.c ****   } 
 1533              		.loc 1 727 12 view .LVU498
 1534 0018 0120     		movs	r0, #1
 1535              	.L137:
 1536              	.LVL78:
 731:Drivers/STM32F1xx_HAL_Driver/Src/stm32f1xx_hal_dma.c ****   
 1537              		.loc 1 731 3 is_stmt 1 view .LVU499
 731:Drivers/STM32F1xx_HAL_Driver/Src/stm32f1xx_hal_dma.c ****   
 1538              		.loc 1 731 3 view .LVU500
 1539 001a 0022     		movs	r2, #0
 1540              	.LVL79:
 731:Drivers/STM32F1xx_HAL_Driver/Src/stm32f1xx_hal_dma.c ****   
 1541              		.loc 1 731 3 is_stmt 0 view .LVU501
 1542 001c 83F82020 		strb	r2, [r3, #32]
 731:Drivers/STM32F1xx_HAL_Driver/Src/stm32f1xx_hal_dma.c ****   
 1543              		.loc 1 731 3 is_stmt 1 view .LVU502
 733:Drivers/STM32F1xx_HAL_Driver/Src/stm32f1xx_hal_dma.c **** }
 1544              		.loc 1 733 3 view .LVU503
 733:Drivers/STM32F1xx_HAL_Driver/Src/stm32f1xx_hal_dma.c **** }
 1545              		.loc 1 733 10 is_stmt 0 view .LVU504
 1546 0020 7047     		bx	lr
 1547              	.LVL80:
 1548              	.L145:
 702:Drivers/STM32F1xx_HAL_Driver/Src/stm32f1xx_hal_dma.c ****     {
 1549              		.loc 1 702 5 is_stmt 1 view .LVU505
 1550 0022 0229     		cmp	r1, #2
 1551 0024 0ED0     		beq	.L138
 1552 0026 05D8     		bhi	.L139
 1553 0028 49B1     		cbz	r1, .L140
 1554 002a 0129     		cmp	r1, #1
ARM GAS  /tmp/cc2tQgYP.s 			page 52


 1555 002c F5D1     		bne	.L137
 709:Drivers/STM32F1xx_HAL_Driver/Src/stm32f1xx_hal_dma.c ****       break;         
 1556              		.loc 1 709 7 view .LVU506
 709:Drivers/STM32F1xx_HAL_Driver/Src/stm32f1xx_hal_dma.c ****       break;         
 1557              		.loc 1 709 34 is_stmt 0 view .LVU507
 1558 002e DA62     		str	r2, [r3, #44]
 710:Drivers/STM32F1xx_HAL_Driver/Src/stm32f1xx_hal_dma.c **** 
 1559              		.loc 1 710 7 is_stmt 1 view .LVU508
 695:Drivers/STM32F1xx_HAL_Driver/Src/stm32f1xx_hal_dma.c ****   
 1560              		.loc 1 695 21 is_stmt 0 view .LVU509
 1561 0030 0020     		movs	r0, #0
 710:Drivers/STM32F1xx_HAL_Driver/Src/stm32f1xx_hal_dma.c **** 
 1562              		.loc 1 710 7 view .LVU510
 1563 0032 F2E7     		b	.L137
 1564              	.L139:
 702:Drivers/STM32F1xx_HAL_Driver/Src/stm32f1xx_hal_dma.c ****     {
 1565              		.loc 1 702 5 view .LVU511
 1566 0034 0329     		cmp	r1, #3
 1567 0036 F0D1     		bne	.L137
 717:Drivers/STM32F1xx_HAL_Driver/Src/stm32f1xx_hal_dma.c ****       break; 
 1568              		.loc 1 717 7 is_stmt 1 view .LVU512
 717:Drivers/STM32F1xx_HAL_Driver/Src/stm32f1xx_hal_dma.c ****       break; 
 1569              		.loc 1 717 31 is_stmt 0 view .LVU513
 1570 0038 5A63     		str	r2, [r3, #52]
 718:Drivers/STM32F1xx_HAL_Driver/Src/stm32f1xx_hal_dma.c ****       
 1571              		.loc 1 718 7 is_stmt 1 view .LVU514
 695:Drivers/STM32F1xx_HAL_Driver/Src/stm32f1xx_hal_dma.c ****   
 1572              		.loc 1 695 21 is_stmt 0 view .LVU515
 1573 003a 0020     		movs	r0, #0
 718:Drivers/STM32F1xx_HAL_Driver/Src/stm32f1xx_hal_dma.c ****       
 1574              		.loc 1 718 7 view .LVU516
 1575 003c EDE7     		b	.L137
 1576              	.L140:
 705:Drivers/STM32F1xx_HAL_Driver/Src/stm32f1xx_hal_dma.c ****       break;
 1577              		.loc 1 705 7 is_stmt 1 view .LVU517
 705:Drivers/STM32F1xx_HAL_Driver/Src/stm32f1xx_hal_dma.c ****       break;
 1578              		.loc 1 705 30 is_stmt 0 view .LVU518
 1579 003e 9A62     		str	r2, [r3, #40]
 706:Drivers/STM32F1xx_HAL_Driver/Src/stm32f1xx_hal_dma.c ****       
 1580              		.loc 1 706 7 is_stmt 1 view .LVU519
 695:Drivers/STM32F1xx_HAL_Driver/Src/stm32f1xx_hal_dma.c ****   
 1581              		.loc 1 695 21 is_stmt 0 view .LVU520
 1582 0040 0846     		mov	r0, r1
 706:Drivers/STM32F1xx_HAL_Driver/Src/stm32f1xx_hal_dma.c ****       
 1583              		.loc 1 706 7 view .LVU521
 1584 0042 EAE7     		b	.L137
 1585              	.L138:
 713:Drivers/STM32F1xx_HAL_Driver/Src/stm32f1xx_hal_dma.c ****       break;         
 1586              		.loc 1 713 7 is_stmt 1 view .LVU522
 713:Drivers/STM32F1xx_HAL_Driver/Src/stm32f1xx_hal_dma.c ****       break;         
 1587              		.loc 1 713 31 is_stmt 0 view .LVU523
 1588 0044 1A63     		str	r2, [r3, #48]
 714:Drivers/STM32F1xx_HAL_Driver/Src/stm32f1xx_hal_dma.c ****       
 1589              		.loc 1 714 7 is_stmt 1 view .LVU524
 695:Drivers/STM32F1xx_HAL_Driver/Src/stm32f1xx_hal_dma.c ****   
 1590              		.loc 1 695 21 is_stmt 0 view .LVU525
 1591 0046 0020     		movs	r0, #0
ARM GAS  /tmp/cc2tQgYP.s 			page 53


 714:Drivers/STM32F1xx_HAL_Driver/Src/stm32f1xx_hal_dma.c ****       
 1592              		.loc 1 714 7 view .LVU526
 1593 0048 E7E7     		b	.L137
 1594              	.L143:
 698:Drivers/STM32F1xx_HAL_Driver/Src/stm32f1xx_hal_dma.c ****   
 1595              		.loc 1 698 3 discriminator 1 view .LVU527
 1596 004a 0220     		movs	r0, #2
 734:Drivers/STM32F1xx_HAL_Driver/Src/stm32f1xx_hal_dma.c **** 
 1597              		.loc 1 734 1 view .LVU528
 1598 004c 7047     		bx	lr
 1599              		.cfi_endproc
 1600              	.LFE73:
 1602              		.section	.text.HAL_DMA_UnRegisterCallback,"ax",%progbits
 1603              		.align	1
 1604              		.global	HAL_DMA_UnRegisterCallback
 1605              		.syntax unified
 1606              		.thumb
 1607              		.thumb_func
 1609              	HAL_DMA_UnRegisterCallback:
 1610              	.LVL81:
 1611              	.LFB74:
 745:Drivers/STM32F1xx_HAL_Driver/Src/stm32f1xx_hal_dma.c ****   HAL_StatusTypeDef status = HAL_OK;
 1612              		.loc 1 745 1 is_stmt 1 view -0
 1613              		.cfi_startproc
 1614              		@ args = 0, pretend = 0, frame = 0
 1615              		@ frame_needed = 0, uses_anonymous_args = 0
 1616              		@ link register save eliminated.
 745:Drivers/STM32F1xx_HAL_Driver/Src/stm32f1xx_hal_dma.c ****   HAL_StatusTypeDef status = HAL_OK;
 1617              		.loc 1 745 1 is_stmt 0 view .LVU530
 1618 0000 0346     		mov	r3, r0
 746:Drivers/STM32F1xx_HAL_Driver/Src/stm32f1xx_hal_dma.c **** 
 1619              		.loc 1 746 3 is_stmt 1 view .LVU531
 1620              	.LVL82:
 749:Drivers/STM32F1xx_HAL_Driver/Src/stm32f1xx_hal_dma.c ****   
 1621              		.loc 1 749 3 view .LVU532
 749:Drivers/STM32F1xx_HAL_Driver/Src/stm32f1xx_hal_dma.c ****   
 1622              		.loc 1 749 3 view .LVU533
 1623 0002 90F82020 		ldrb	r2, [r0, #32]	@ zero_extendqisi2
 1624 0006 012A     		cmp	r2, #1
 1625 0008 27D0     		beq	.L155
 749:Drivers/STM32F1xx_HAL_Driver/Src/stm32f1xx_hal_dma.c ****   
 1626              		.loc 1 749 3 discriminator 2 view .LVU534
 1627 000a 0122     		movs	r2, #1
 1628 000c 80F82020 		strb	r2, [r0, #32]
 749:Drivers/STM32F1xx_HAL_Driver/Src/stm32f1xx_hal_dma.c ****   
 1629              		.loc 1 749 3 view .LVU535
 751:Drivers/STM32F1xx_HAL_Driver/Src/stm32f1xx_hal_dma.c ****   {
 1630              		.loc 1 751 3 view .LVU536
 751:Drivers/STM32F1xx_HAL_Driver/Src/stm32f1xx_hal_dma.c ****   {
 1631              		.loc 1 751 33 is_stmt 0 view .LVU537
 1632 0010 90F82100 		ldrb	r0, [r0, #33]	@ zero_extendqisi2
 1633              	.LVL83:
 751:Drivers/STM32F1xx_HAL_Driver/Src/stm32f1xx_hal_dma.c ****   {
 1634              		.loc 1 751 5 view .LVU538
 1635 0014 9042     		cmp	r0, r2
 1636 0016 04D0     		beq	.L157
 785:Drivers/STM32F1xx_HAL_Driver/Src/stm32f1xx_hal_dma.c ****   } 
ARM GAS  /tmp/cc2tQgYP.s 			page 54


 1637              		.loc 1 785 12 view .LVU539
 1638 0018 0120     		movs	r0, #1
 1639              	.L148:
 1640              	.LVL84:
 789:Drivers/STM32F1xx_HAL_Driver/Src/stm32f1xx_hal_dma.c ****   
 1641              		.loc 1 789 3 is_stmt 1 view .LVU540
 789:Drivers/STM32F1xx_HAL_Driver/Src/stm32f1xx_hal_dma.c ****   
 1642              		.loc 1 789 3 view .LVU541
 1643 001a 0022     		movs	r2, #0
 1644 001c 83F82020 		strb	r2, [r3, #32]
 789:Drivers/STM32F1xx_HAL_Driver/Src/stm32f1xx_hal_dma.c ****   
 1645              		.loc 1 789 3 view .LVU542
 791:Drivers/STM32F1xx_HAL_Driver/Src/stm32f1xx_hal_dma.c **** }
 1646              		.loc 1 791 3 view .LVU543
 791:Drivers/STM32F1xx_HAL_Driver/Src/stm32f1xx_hal_dma.c **** }
 1647              		.loc 1 791 10 is_stmt 0 view .LVU544
 1648 0020 7047     		bx	lr
 1649              	.LVL85:
 1650              	.L157:
 753:Drivers/STM32F1xx_HAL_Driver/Src/stm32f1xx_hal_dma.c ****     {
 1651              		.loc 1 753 5 is_stmt 1 view .LVU545
 1652 0022 0229     		cmp	r1, #2
 1653 0024 13D0     		beq	.L149
 1654 0026 09D9     		bls	.L158
 1655 0028 0329     		cmp	r1, #3
 1656 002a 13D0     		beq	.L153
 1657 002c 0429     		cmp	r1, #4
 1658 002e F4D1     		bne	.L148
 772:Drivers/STM32F1xx_HAL_Driver/Src/stm32f1xx_hal_dma.c ****       hdma->XferHalfCpltCallback = NULL;
 1659              		.loc 1 772 7 view .LVU546
 772:Drivers/STM32F1xx_HAL_Driver/Src/stm32f1xx_hal_dma.c ****       hdma->XferHalfCpltCallback = NULL;
 1660              		.loc 1 772 30 is_stmt 0 view .LVU547
 1661 0030 0020     		movs	r0, #0
 1662 0032 9862     		str	r0, [r3, #40]
 773:Drivers/STM32F1xx_HAL_Driver/Src/stm32f1xx_hal_dma.c ****       hdma->XferErrorCallback = NULL;
 1663              		.loc 1 773 7 is_stmt 1 view .LVU548
 773:Drivers/STM32F1xx_HAL_Driver/Src/stm32f1xx_hal_dma.c ****       hdma->XferErrorCallback = NULL;
 1664              		.loc 1 773 34 is_stmt 0 view .LVU549
 1665 0034 D862     		str	r0, [r3, #44]
 774:Drivers/STM32F1xx_HAL_Driver/Src/stm32f1xx_hal_dma.c ****       hdma->XferAbortCallback = NULL;
 1666              		.loc 1 774 7 is_stmt 1 view .LVU550
 774:Drivers/STM32F1xx_HAL_Driver/Src/stm32f1xx_hal_dma.c ****       hdma->XferAbortCallback = NULL;
 1667              		.loc 1 774 31 is_stmt 0 view .LVU551
 1668 0036 1863     		str	r0, [r3, #48]
 775:Drivers/STM32F1xx_HAL_Driver/Src/stm32f1xx_hal_dma.c ****       break; 
 1669              		.loc 1 775 7 is_stmt 1 view .LVU552
 775:Drivers/STM32F1xx_HAL_Driver/Src/stm32f1xx_hal_dma.c ****       break; 
 1670              		.loc 1 775 31 is_stmt 0 view .LVU553
 1671 0038 5863     		str	r0, [r3, #52]
 776:Drivers/STM32F1xx_HAL_Driver/Src/stm32f1xx_hal_dma.c **** 
 1672              		.loc 1 776 7 is_stmt 1 view .LVU554
 1673 003a EEE7     		b	.L148
 1674              	.L158:
 753:Drivers/STM32F1xx_HAL_Driver/Src/stm32f1xx_hal_dma.c ****     {
 1675              		.loc 1 753 5 is_stmt 0 view .LVU555
 1676 003c 21B1     		cbz	r1, .L151
 1677 003e 9142     		cmp	r1, r2
ARM GAS  /tmp/cc2tQgYP.s 			page 55


 1678 0040 EBD1     		bne	.L148
 760:Drivers/STM32F1xx_HAL_Driver/Src/stm32f1xx_hal_dma.c ****       break;         
 1679              		.loc 1 760 7 is_stmt 1 view .LVU556
 760:Drivers/STM32F1xx_HAL_Driver/Src/stm32f1xx_hal_dma.c ****       break;         
 1680              		.loc 1 760 34 is_stmt 0 view .LVU557
 1681 0042 0020     		movs	r0, #0
 1682 0044 D862     		str	r0, [r3, #44]
 761:Drivers/STM32F1xx_HAL_Driver/Src/stm32f1xx_hal_dma.c **** 
 1683              		.loc 1 761 7 is_stmt 1 view .LVU558
 1684 0046 E8E7     		b	.L148
 1685              	.L151:
 756:Drivers/STM32F1xx_HAL_Driver/Src/stm32f1xx_hal_dma.c ****       break;
 1686              		.loc 1 756 7 view .LVU559
 756:Drivers/STM32F1xx_HAL_Driver/Src/stm32f1xx_hal_dma.c ****       break;
 1687              		.loc 1 756 30 is_stmt 0 view .LVU560
 1688 0048 9962     		str	r1, [r3, #40]
 757:Drivers/STM32F1xx_HAL_Driver/Src/stm32f1xx_hal_dma.c **** 
 1689              		.loc 1 757 7 is_stmt 1 view .LVU561
 746:Drivers/STM32F1xx_HAL_Driver/Src/stm32f1xx_hal_dma.c **** 
 1690              		.loc 1 746 21 is_stmt 0 view .LVU562
 1691 004a 0846     		mov	r0, r1
 757:Drivers/STM32F1xx_HAL_Driver/Src/stm32f1xx_hal_dma.c **** 
 1692              		.loc 1 757 7 view .LVU563
 1693 004c E5E7     		b	.L148
 1694              	.L149:
 764:Drivers/STM32F1xx_HAL_Driver/Src/stm32f1xx_hal_dma.c ****       break;         
 1695              		.loc 1 764 7 is_stmt 1 view .LVU564
 764:Drivers/STM32F1xx_HAL_Driver/Src/stm32f1xx_hal_dma.c ****       break;         
 1696              		.loc 1 764 31 is_stmt 0 view .LVU565
 1697 004e 0020     		movs	r0, #0
 1698 0050 1863     		str	r0, [r3, #48]
 765:Drivers/STM32F1xx_HAL_Driver/Src/stm32f1xx_hal_dma.c **** 
 1699              		.loc 1 765 7 is_stmt 1 view .LVU566
 1700 0052 E2E7     		b	.L148
 1701              	.L153:
 768:Drivers/STM32F1xx_HAL_Driver/Src/stm32f1xx_hal_dma.c ****       break; 
 1702              		.loc 1 768 7 view .LVU567
 768:Drivers/STM32F1xx_HAL_Driver/Src/stm32f1xx_hal_dma.c ****       break; 
 1703              		.loc 1 768 31 is_stmt 0 view .LVU568
 1704 0054 0020     		movs	r0, #0
 1705 0056 5863     		str	r0, [r3, #52]
 769:Drivers/STM32F1xx_HAL_Driver/Src/stm32f1xx_hal_dma.c **** 
 1706              		.loc 1 769 7 is_stmt 1 view .LVU569
 1707 0058 DFE7     		b	.L148
 1708              	.LVL86:
 1709              	.L155:
 749:Drivers/STM32F1xx_HAL_Driver/Src/stm32f1xx_hal_dma.c ****   
 1710              		.loc 1 749 3 is_stmt 0 discriminator 1 view .LVU570
 1711 005a 0220     		movs	r0, #2
 1712              	.LVL87:
 792:Drivers/STM32F1xx_HAL_Driver/Src/stm32f1xx_hal_dma.c ****   
 1713              		.loc 1 792 1 view .LVU571
 1714 005c 7047     		bx	lr
 1715              		.cfi_endproc
 1716              	.LFE74:
 1718              		.section	.text.HAL_DMA_GetState,"ax",%progbits
 1719              		.align	1
ARM GAS  /tmp/cc2tQgYP.s 			page 56


 1720              		.global	HAL_DMA_GetState
 1721              		.syntax unified
 1722              		.thumb
 1723              		.thumb_func
 1725              	HAL_DMA_GetState:
 1726              	.LVL88:
 1727              	.LFB75:
 821:Drivers/STM32F1xx_HAL_Driver/Src/stm32f1xx_hal_dma.c ****   /* Return DMA handle state */
 1728              		.loc 1 821 1 is_stmt 1 view -0
 1729              		.cfi_startproc
 1730              		@ args = 0, pretend = 0, frame = 0
 1731              		@ frame_needed = 0, uses_anonymous_args = 0
 1732              		@ link register save eliminated.
 823:Drivers/STM32F1xx_HAL_Driver/Src/stm32f1xx_hal_dma.c **** }
 1733              		.loc 1 823 3 view .LVU573
 824:Drivers/STM32F1xx_HAL_Driver/Src/stm32f1xx_hal_dma.c **** 
 1734              		.loc 1 824 1 is_stmt 0 view .LVU574
 1735 0000 90F82100 		ldrb	r0, [r0, #33]	@ zero_extendqisi2
 1736              	.LVL89:
 824:Drivers/STM32F1xx_HAL_Driver/Src/stm32f1xx_hal_dma.c **** 
 1737              		.loc 1 824 1 view .LVU575
 1738 0004 7047     		bx	lr
 1739              		.cfi_endproc
 1740              	.LFE75:
 1742              		.section	.text.HAL_DMA_GetError,"ax",%progbits
 1743              		.align	1
 1744              		.global	HAL_DMA_GetError
 1745              		.syntax unified
 1746              		.thumb
 1747              		.thumb_func
 1749              	HAL_DMA_GetError:
 1750              	.LVL90:
 1751              	.LFB76:
 833:Drivers/STM32F1xx_HAL_Driver/Src/stm32f1xx_hal_dma.c ****   return hdma->ErrorCode;
 1752              		.loc 1 833 1 is_stmt 1 view -0
 1753              		.cfi_startproc
 1754              		@ args = 0, pretend = 0, frame = 0
 1755              		@ frame_needed = 0, uses_anonymous_args = 0
 1756              		@ link register save eliminated.
 834:Drivers/STM32F1xx_HAL_Driver/Src/stm32f1xx_hal_dma.c **** }
 1757              		.loc 1 834 3 view .LVU577
 834:Drivers/STM32F1xx_HAL_Driver/Src/stm32f1xx_hal_dma.c **** }
 1758              		.loc 1 834 14 is_stmt 0 view .LVU578
 1759 0000 806B     		ldr	r0, [r0, #56]
 1760              	.LVL91:
 835:Drivers/STM32F1xx_HAL_Driver/Src/stm32f1xx_hal_dma.c **** 
 1761              		.loc 1 835 1 view .LVU579
 1762 0002 7047     		bx	lr
 1763              		.cfi_endproc
 1764              	.LFE76:
 1766              		.text
 1767              	.Letext0:
 1768              		.file 2 "/opt/arm-gnu-toolchain-15.2.rel1-x86_64-arm-none-eabi/arm-none-eabi/include/machine/_defa
 1769              		.file 3 "/opt/arm-gnu-toolchain-15.2.rel1-x86_64-arm-none-eabi/arm-none-eabi/include/sys/_stdint.h
 1770              		.file 4 "Drivers/CMSIS/Device/ST/STM32F1xx/Include/stm32f103xb.h"
 1771              		.file 5 "Drivers/CMSIS/Device/ST/STM32F1xx/Include/stm32f1xx.h"
 1772              		.file 6 "Drivers/STM32F1xx_HAL_Driver/Inc/stm32f1xx_hal_def.h"
ARM GAS  /tmp/cc2tQgYP.s 			page 57


 1773              		.file 7 "Drivers/STM32F1xx_HAL_Driver/Inc/stm32f1xx_hal_dma.h"
 1774              		.file 8 "Drivers/STM32F1xx_HAL_Driver/Inc/stm32f1xx_hal.h"
ARM GAS  /tmp/cc2tQgYP.s 			page 58

