ARM GAS  /tmp/ccj4n996.s 			page 1


   1              		.cpu cortex-m3
   2              		.arch armv7-m
   3              		.fpu softvfp
   4              		.eabi_attribute 20, 1
   5              		.eabi_attribute 21, 1
   6              		.eabi_attribute 23, 3
   7              		.eabi_attribute 24, 1
   8              		.eabi_attribute 25, 1
   9              		.eabi_attribute 26, 1
  10              		.eabi_attribute 30, 1
  11              		.eabi_attribute 34, 1
  12              		.eabi_attribute 18, 4
  13              		.file	"stm32f1xx_hal_flash.c"
  14              		.text
  15              	.Ltext0:
  16              		.cfi_sections	.debug_frame
  17              		.file 1 "Drivers/STM32F1xx_HAL_Driver/Src/stm32f1xx_hal_flash.c"
  18              		.section	.text.FLASH_Program_HalfWord,"ax",%progbits
  19              		.align	1
  20              		.syntax unified
  21              		.thumb
  22              		.thumb_func
  24              	FLASH_Program_HalfWord:
  25              	.LVL0:
  26              	.LFB76:
   1:Drivers/STM32F1xx_HAL_Driver/Src/stm32f1xx_hal_flash.c **** /**
   2:Drivers/STM32F1xx_HAL_Driver/Src/stm32f1xx_hal_flash.c ****   ******************************************************************************
   3:Drivers/STM32F1xx_HAL_Driver/Src/stm32f1xx_hal_flash.c ****   * @file    stm32f1xx_hal_flash.c
   4:Drivers/STM32F1xx_HAL_Driver/Src/stm32f1xx_hal_flash.c ****   * @author  MCD Application Team
   5:Drivers/STM32F1xx_HAL_Driver/Src/stm32f1xx_hal_flash.c ****   * @brief   FLASH HAL module driver.
   6:Drivers/STM32F1xx_HAL_Driver/Src/stm32f1xx_hal_flash.c ****   *          This file provides firmware functions to manage the following 
   7:Drivers/STM32F1xx_HAL_Driver/Src/stm32f1xx_hal_flash.c ****   *          functionalities of the internal FLASH memory:
   8:Drivers/STM32F1xx_HAL_Driver/Src/stm32f1xx_hal_flash.c ****   *           + Program operations functions
   9:Drivers/STM32F1xx_HAL_Driver/Src/stm32f1xx_hal_flash.c ****   *           + Memory Control functions 
  10:Drivers/STM32F1xx_HAL_Driver/Src/stm32f1xx_hal_flash.c ****   *           + Peripheral State functions
  11:Drivers/STM32F1xx_HAL_Driver/Src/stm32f1xx_hal_flash.c ****   *         
  12:Drivers/STM32F1xx_HAL_Driver/Src/stm32f1xx_hal_flash.c ****   @verbatim
  13:Drivers/STM32F1xx_HAL_Driver/Src/stm32f1xx_hal_flash.c ****   ==============================================================================
  14:Drivers/STM32F1xx_HAL_Driver/Src/stm32f1xx_hal_flash.c ****                         ##### FLASH peripheral features #####
  15:Drivers/STM32F1xx_HAL_Driver/Src/stm32f1xx_hal_flash.c ****   ==============================================================================
  16:Drivers/STM32F1xx_HAL_Driver/Src/stm32f1xx_hal_flash.c ****   [..] The Flash memory interface manages CPU AHB I-Code and D-Code accesses 
  17:Drivers/STM32F1xx_HAL_Driver/Src/stm32f1xx_hal_flash.c ****        to the Flash memory. It implements the erase and program Flash memory operations 
  18:Drivers/STM32F1xx_HAL_Driver/Src/stm32f1xx_hal_flash.c ****        and the read and write protection mechanisms.
  19:Drivers/STM32F1xx_HAL_Driver/Src/stm32f1xx_hal_flash.c **** 
  20:Drivers/STM32F1xx_HAL_Driver/Src/stm32f1xx_hal_flash.c ****   [..] The Flash memory interface accelerates code execution with a system of instruction
  21:Drivers/STM32F1xx_HAL_Driver/Src/stm32f1xx_hal_flash.c ****       prefetch. 
  22:Drivers/STM32F1xx_HAL_Driver/Src/stm32f1xx_hal_flash.c **** 
  23:Drivers/STM32F1xx_HAL_Driver/Src/stm32f1xx_hal_flash.c ****   [..] The FLASH main features are:
  24:Drivers/STM32F1xx_HAL_Driver/Src/stm32f1xx_hal_flash.c ****       (+) Flash memory read operations
  25:Drivers/STM32F1xx_HAL_Driver/Src/stm32f1xx_hal_flash.c ****       (+) Flash memory program/erase operations
  26:Drivers/STM32F1xx_HAL_Driver/Src/stm32f1xx_hal_flash.c ****       (+) Read / write protections
  27:Drivers/STM32F1xx_HAL_Driver/Src/stm32f1xx_hal_flash.c ****       (+) Prefetch on I-Code
  28:Drivers/STM32F1xx_HAL_Driver/Src/stm32f1xx_hal_flash.c ****       (+) Option Bytes programming
  29:Drivers/STM32F1xx_HAL_Driver/Src/stm32f1xx_hal_flash.c **** 
  30:Drivers/STM32F1xx_HAL_Driver/Src/stm32f1xx_hal_flash.c **** 
  31:Drivers/STM32F1xx_HAL_Driver/Src/stm32f1xx_hal_flash.c ****                      ##### How to use this driver #####
  32:Drivers/STM32F1xx_HAL_Driver/Src/stm32f1xx_hal_flash.c ****   ==============================================================================
ARM GAS  /tmp/ccj4n996.s 			page 2


  33:Drivers/STM32F1xx_HAL_Driver/Src/stm32f1xx_hal_flash.c ****   [..]                             
  34:Drivers/STM32F1xx_HAL_Driver/Src/stm32f1xx_hal_flash.c ****       This driver provides functions and macros to configure and program the FLASH 
  35:Drivers/STM32F1xx_HAL_Driver/Src/stm32f1xx_hal_flash.c ****       memory of all STM32F1xx devices.
  36:Drivers/STM32F1xx_HAL_Driver/Src/stm32f1xx_hal_flash.c ****     
  37:Drivers/STM32F1xx_HAL_Driver/Src/stm32f1xx_hal_flash.c ****       (#) FLASH Memory I/O Programming functions: this group includes all needed
  38:Drivers/STM32F1xx_HAL_Driver/Src/stm32f1xx_hal_flash.c ****           functions to erase and program the main memory:
  39:Drivers/STM32F1xx_HAL_Driver/Src/stm32f1xx_hal_flash.c ****         (++) Lock and Unlock the FLASH interface
  40:Drivers/STM32F1xx_HAL_Driver/Src/stm32f1xx_hal_flash.c ****         (++) Erase function: Erase page, erase all pages
  41:Drivers/STM32F1xx_HAL_Driver/Src/stm32f1xx_hal_flash.c ****         (++) Program functions: half word, word and doubleword
  42:Drivers/STM32F1xx_HAL_Driver/Src/stm32f1xx_hal_flash.c ****       (#) FLASH Option Bytes Programming functions: this group includes all needed
  43:Drivers/STM32F1xx_HAL_Driver/Src/stm32f1xx_hal_flash.c ****           functions to manage the Option Bytes:
  44:Drivers/STM32F1xx_HAL_Driver/Src/stm32f1xx_hal_flash.c ****         (++) Lock and Unlock the Option Bytes
  45:Drivers/STM32F1xx_HAL_Driver/Src/stm32f1xx_hal_flash.c ****         (++) Set/Reset the write protection
  46:Drivers/STM32F1xx_HAL_Driver/Src/stm32f1xx_hal_flash.c ****         (++) Set the Read protection Level
  47:Drivers/STM32F1xx_HAL_Driver/Src/stm32f1xx_hal_flash.c ****         (++) Program the user Option Bytes
  48:Drivers/STM32F1xx_HAL_Driver/Src/stm32f1xx_hal_flash.c ****         (++) Launch the Option Bytes loader
  49:Drivers/STM32F1xx_HAL_Driver/Src/stm32f1xx_hal_flash.c ****         (++) Erase Option Bytes
  50:Drivers/STM32F1xx_HAL_Driver/Src/stm32f1xx_hal_flash.c ****         (++) Program the data Option Bytes
  51:Drivers/STM32F1xx_HAL_Driver/Src/stm32f1xx_hal_flash.c ****         (++) Get the Write protection.
  52:Drivers/STM32F1xx_HAL_Driver/Src/stm32f1xx_hal_flash.c ****         (++) Get the user option bytes.
  53:Drivers/STM32F1xx_HAL_Driver/Src/stm32f1xx_hal_flash.c ****     
  54:Drivers/STM32F1xx_HAL_Driver/Src/stm32f1xx_hal_flash.c ****       (#) Interrupts and flags management functions : this group 
  55:Drivers/STM32F1xx_HAL_Driver/Src/stm32f1xx_hal_flash.c ****           includes all needed functions to:
  56:Drivers/STM32F1xx_HAL_Driver/Src/stm32f1xx_hal_flash.c ****         (++) Handle FLASH interrupts
  57:Drivers/STM32F1xx_HAL_Driver/Src/stm32f1xx_hal_flash.c ****         (++) Wait for last FLASH operation according to its status
  58:Drivers/STM32F1xx_HAL_Driver/Src/stm32f1xx_hal_flash.c ****         (++) Get error flag status
  59:Drivers/STM32F1xx_HAL_Driver/Src/stm32f1xx_hal_flash.c **** 
  60:Drivers/STM32F1xx_HAL_Driver/Src/stm32f1xx_hal_flash.c ****   [..] In addition to these function, this driver includes a set of macros allowing
  61:Drivers/STM32F1xx_HAL_Driver/Src/stm32f1xx_hal_flash.c ****        to handle the following operations:
  62:Drivers/STM32F1xx_HAL_Driver/Src/stm32f1xx_hal_flash.c ****       
  63:Drivers/STM32F1xx_HAL_Driver/Src/stm32f1xx_hal_flash.c ****       (+) Set/Get the latency
  64:Drivers/STM32F1xx_HAL_Driver/Src/stm32f1xx_hal_flash.c ****       (+) Enable/Disable the prefetch buffer
  65:Drivers/STM32F1xx_HAL_Driver/Src/stm32f1xx_hal_flash.c ****       (+) Enable/Disable the half cycle access
  66:Drivers/STM32F1xx_HAL_Driver/Src/stm32f1xx_hal_flash.c ****       (+) Enable/Disable the FLASH interrupts
  67:Drivers/STM32F1xx_HAL_Driver/Src/stm32f1xx_hal_flash.c ****       (+) Monitor the FLASH flags status
  68:Drivers/STM32F1xx_HAL_Driver/Src/stm32f1xx_hal_flash.c ****           
  69:Drivers/STM32F1xx_HAL_Driver/Src/stm32f1xx_hal_flash.c ****   @endverbatim
  70:Drivers/STM32F1xx_HAL_Driver/Src/stm32f1xx_hal_flash.c ****   ******************************************************************************
  71:Drivers/STM32F1xx_HAL_Driver/Src/stm32f1xx_hal_flash.c ****   * @attention
  72:Drivers/STM32F1xx_HAL_Driver/Src/stm32f1xx_hal_flash.c ****   *
  73:Drivers/STM32F1xx_HAL_Driver/Src/stm32f1xx_hal_flash.c ****   * <h2><center>&copy; Copyright (c) 2016 STMicroelectronics.
  74:Drivers/STM32F1xx_HAL_Driver/Src/stm32f1xx_hal_flash.c ****   * All rights reserved.</center></h2>
  75:Drivers/STM32F1xx_HAL_Driver/Src/stm32f1xx_hal_flash.c ****   *
  76:Drivers/STM32F1xx_HAL_Driver/Src/stm32f1xx_hal_flash.c ****   * This software component is licensed by ST under BSD 3-Clause license,
  77:Drivers/STM32F1xx_HAL_Driver/Src/stm32f1xx_hal_flash.c ****   * the "License"; You may not use this file except in compliance with the
  78:Drivers/STM32F1xx_HAL_Driver/Src/stm32f1xx_hal_flash.c ****   * License. You may obtain a copy of the License at:
  79:Drivers/STM32F1xx_HAL_Driver/Src/stm32f1xx_hal_flash.c ****   *                        opensource.org/licenses/BSD-3-Clause
  80:Drivers/STM32F1xx_HAL_Driver/Src/stm32f1xx_hal_flash.c ****   *
  81:Drivers/STM32F1xx_HAL_Driver/Src/stm32f1xx_hal_flash.c ****   ******************************************************************************
  82:Drivers/STM32F1xx_HAL_Driver/Src/stm32f1xx_hal_flash.c ****   */
  83:Drivers/STM32F1xx_HAL_Driver/Src/stm32f1xx_hal_flash.c **** 
  84:Drivers/STM32F1xx_HAL_Driver/Src/stm32f1xx_hal_flash.c **** /* Includes ------------------------------------------------------------------*/
  85:Drivers/STM32F1xx_HAL_Driver/Src/stm32f1xx_hal_flash.c **** #include "stm32f1xx_hal.h"
  86:Drivers/STM32F1xx_HAL_Driver/Src/stm32f1xx_hal_flash.c **** 
  87:Drivers/STM32F1xx_HAL_Driver/Src/stm32f1xx_hal_flash.c **** /** @addtogroup STM32F1xx_HAL_Driver
  88:Drivers/STM32F1xx_HAL_Driver/Src/stm32f1xx_hal_flash.c ****   * @{
  89:Drivers/STM32F1xx_HAL_Driver/Src/stm32f1xx_hal_flash.c ****   */
ARM GAS  /tmp/ccj4n996.s 			page 3


  90:Drivers/STM32F1xx_HAL_Driver/Src/stm32f1xx_hal_flash.c **** 
  91:Drivers/STM32F1xx_HAL_Driver/Src/stm32f1xx_hal_flash.c **** #ifdef HAL_FLASH_MODULE_ENABLED
  92:Drivers/STM32F1xx_HAL_Driver/Src/stm32f1xx_hal_flash.c **** 
  93:Drivers/STM32F1xx_HAL_Driver/Src/stm32f1xx_hal_flash.c **** /** @defgroup FLASH FLASH
  94:Drivers/STM32F1xx_HAL_Driver/Src/stm32f1xx_hal_flash.c ****   * @brief FLASH HAL module driver
  95:Drivers/STM32F1xx_HAL_Driver/Src/stm32f1xx_hal_flash.c ****   * @{
  96:Drivers/STM32F1xx_HAL_Driver/Src/stm32f1xx_hal_flash.c ****   */
  97:Drivers/STM32F1xx_HAL_Driver/Src/stm32f1xx_hal_flash.c **** 
  98:Drivers/STM32F1xx_HAL_Driver/Src/stm32f1xx_hal_flash.c **** /* Private typedef -----------------------------------------------------------*/
  99:Drivers/STM32F1xx_HAL_Driver/Src/stm32f1xx_hal_flash.c **** /* Private define ------------------------------------------------------------*/
 100:Drivers/STM32F1xx_HAL_Driver/Src/stm32f1xx_hal_flash.c **** /** @defgroup FLASH_Private_Constants FLASH Private Constants
 101:Drivers/STM32F1xx_HAL_Driver/Src/stm32f1xx_hal_flash.c ****   * @{
 102:Drivers/STM32F1xx_HAL_Driver/Src/stm32f1xx_hal_flash.c ****   */
 103:Drivers/STM32F1xx_HAL_Driver/Src/stm32f1xx_hal_flash.c **** /**
 104:Drivers/STM32F1xx_HAL_Driver/Src/stm32f1xx_hal_flash.c ****   * @}
 105:Drivers/STM32F1xx_HAL_Driver/Src/stm32f1xx_hal_flash.c ****   */
 106:Drivers/STM32F1xx_HAL_Driver/Src/stm32f1xx_hal_flash.c **** 
 107:Drivers/STM32F1xx_HAL_Driver/Src/stm32f1xx_hal_flash.c **** /* Private macro ---------------------------- ---------------------------------*/
 108:Drivers/STM32F1xx_HAL_Driver/Src/stm32f1xx_hal_flash.c **** /** @defgroup FLASH_Private_Macros FLASH Private Macros
 109:Drivers/STM32F1xx_HAL_Driver/Src/stm32f1xx_hal_flash.c ****   * @{
 110:Drivers/STM32F1xx_HAL_Driver/Src/stm32f1xx_hal_flash.c ****   */
 111:Drivers/STM32F1xx_HAL_Driver/Src/stm32f1xx_hal_flash.c ****  
 112:Drivers/STM32F1xx_HAL_Driver/Src/stm32f1xx_hal_flash.c **** /**
 113:Drivers/STM32F1xx_HAL_Driver/Src/stm32f1xx_hal_flash.c ****   * @}
 114:Drivers/STM32F1xx_HAL_Driver/Src/stm32f1xx_hal_flash.c ****   */
 115:Drivers/STM32F1xx_HAL_Driver/Src/stm32f1xx_hal_flash.c **** 
 116:Drivers/STM32F1xx_HAL_Driver/Src/stm32f1xx_hal_flash.c **** /* Private variables ---------------------------------------------------------*/
 117:Drivers/STM32F1xx_HAL_Driver/Src/stm32f1xx_hal_flash.c **** /** @defgroup FLASH_Private_Variables FLASH Private Variables
 118:Drivers/STM32F1xx_HAL_Driver/Src/stm32f1xx_hal_flash.c ****   * @{
 119:Drivers/STM32F1xx_HAL_Driver/Src/stm32f1xx_hal_flash.c ****   */
 120:Drivers/STM32F1xx_HAL_Driver/Src/stm32f1xx_hal_flash.c **** /* Variables used for Erase pages under interruption*/
 121:Drivers/STM32F1xx_HAL_Driver/Src/stm32f1xx_hal_flash.c **** FLASH_ProcessTypeDef pFlash;
 122:Drivers/STM32F1xx_HAL_Driver/Src/stm32f1xx_hal_flash.c **** /**
 123:Drivers/STM32F1xx_HAL_Driver/Src/stm32f1xx_hal_flash.c ****   * @}
 124:Drivers/STM32F1xx_HAL_Driver/Src/stm32f1xx_hal_flash.c ****   */
 125:Drivers/STM32F1xx_HAL_Driver/Src/stm32f1xx_hal_flash.c **** 
 126:Drivers/STM32F1xx_HAL_Driver/Src/stm32f1xx_hal_flash.c **** /* Private function prototypes -----------------------------------------------*/
 127:Drivers/STM32F1xx_HAL_Driver/Src/stm32f1xx_hal_flash.c **** /** @defgroup FLASH_Private_Functions FLASH Private Functions
 128:Drivers/STM32F1xx_HAL_Driver/Src/stm32f1xx_hal_flash.c ****   * @{
 129:Drivers/STM32F1xx_HAL_Driver/Src/stm32f1xx_hal_flash.c ****   */
 130:Drivers/STM32F1xx_HAL_Driver/Src/stm32f1xx_hal_flash.c **** static  void   FLASH_Program_HalfWord(uint32_t Address, uint16_t Data);
 131:Drivers/STM32F1xx_HAL_Driver/Src/stm32f1xx_hal_flash.c **** static  void   FLASH_SetErrorCode(void);
 132:Drivers/STM32F1xx_HAL_Driver/Src/stm32f1xx_hal_flash.c **** extern void    FLASH_PageErase(uint32_t PageAddress);
 133:Drivers/STM32F1xx_HAL_Driver/Src/stm32f1xx_hal_flash.c **** /**
 134:Drivers/STM32F1xx_HAL_Driver/Src/stm32f1xx_hal_flash.c ****   * @}
 135:Drivers/STM32F1xx_HAL_Driver/Src/stm32f1xx_hal_flash.c ****   */
 136:Drivers/STM32F1xx_HAL_Driver/Src/stm32f1xx_hal_flash.c **** 
 137:Drivers/STM32F1xx_HAL_Driver/Src/stm32f1xx_hal_flash.c **** /* Exported functions ---------------------------------------------------------*/
 138:Drivers/STM32F1xx_HAL_Driver/Src/stm32f1xx_hal_flash.c **** /** @defgroup FLASH_Exported_Functions FLASH Exported Functions
 139:Drivers/STM32F1xx_HAL_Driver/Src/stm32f1xx_hal_flash.c ****   * @{
 140:Drivers/STM32F1xx_HAL_Driver/Src/stm32f1xx_hal_flash.c ****   */
 141:Drivers/STM32F1xx_HAL_Driver/Src/stm32f1xx_hal_flash.c ****   
 142:Drivers/STM32F1xx_HAL_Driver/Src/stm32f1xx_hal_flash.c **** /** @defgroup FLASH_Exported_Functions_Group1 Programming operation functions 
 143:Drivers/STM32F1xx_HAL_Driver/Src/stm32f1xx_hal_flash.c ****   *  @brief   Programming operation functions 
 144:Drivers/STM32F1xx_HAL_Driver/Src/stm32f1xx_hal_flash.c ****   *
 145:Drivers/STM32F1xx_HAL_Driver/Src/stm32f1xx_hal_flash.c **** @verbatim   
 146:Drivers/STM32F1xx_HAL_Driver/Src/stm32f1xx_hal_flash.c **** @endverbatim
ARM GAS  /tmp/ccj4n996.s 			page 4


 147:Drivers/STM32F1xx_HAL_Driver/Src/stm32f1xx_hal_flash.c ****   * @{
 148:Drivers/STM32F1xx_HAL_Driver/Src/stm32f1xx_hal_flash.c ****   */
 149:Drivers/STM32F1xx_HAL_Driver/Src/stm32f1xx_hal_flash.c **** 
 150:Drivers/STM32F1xx_HAL_Driver/Src/stm32f1xx_hal_flash.c **** /**
 151:Drivers/STM32F1xx_HAL_Driver/Src/stm32f1xx_hal_flash.c ****   * @brief  Program halfword, word or double word at a specified address
 152:Drivers/STM32F1xx_HAL_Driver/Src/stm32f1xx_hal_flash.c ****   * @note   The function HAL_FLASH_Unlock() should be called before to unlock the FLASH interface
 153:Drivers/STM32F1xx_HAL_Driver/Src/stm32f1xx_hal_flash.c ****   *         The function HAL_FLASH_Lock() should be called after to lock the FLASH interface
 154:Drivers/STM32F1xx_HAL_Driver/Src/stm32f1xx_hal_flash.c ****   *
 155:Drivers/STM32F1xx_HAL_Driver/Src/stm32f1xx_hal_flash.c ****   * @note   If an erase and a program operations are requested simultaneously,    
 156:Drivers/STM32F1xx_HAL_Driver/Src/stm32f1xx_hal_flash.c ****   *         the erase operation is performed before the program one.
 157:Drivers/STM32F1xx_HAL_Driver/Src/stm32f1xx_hal_flash.c ****   *  
 158:Drivers/STM32F1xx_HAL_Driver/Src/stm32f1xx_hal_flash.c ****   * @note   FLASH should be previously erased before new programmation (only exception to this 
 159:Drivers/STM32F1xx_HAL_Driver/Src/stm32f1xx_hal_flash.c ****   *         is when 0x0000 is programmed)
 160:Drivers/STM32F1xx_HAL_Driver/Src/stm32f1xx_hal_flash.c ****   *
 161:Drivers/STM32F1xx_HAL_Driver/Src/stm32f1xx_hal_flash.c ****   * @param  TypeProgram:  Indicate the way to program at a specified address.
 162:Drivers/STM32F1xx_HAL_Driver/Src/stm32f1xx_hal_flash.c ****   *                       This parameter can be a value of @ref FLASH_Type_Program
 163:Drivers/STM32F1xx_HAL_Driver/Src/stm32f1xx_hal_flash.c ****   * @param  Address:      Specifies the address to be programmed.
 164:Drivers/STM32F1xx_HAL_Driver/Src/stm32f1xx_hal_flash.c ****   * @param  Data:         Specifies the data to be programmed
 165:Drivers/STM32F1xx_HAL_Driver/Src/stm32f1xx_hal_flash.c ****   * 
 166:Drivers/STM32F1xx_HAL_Driver/Src/stm32f1xx_hal_flash.c ****   * @retval HAL_StatusTypeDef HAL Status
 167:Drivers/STM32F1xx_HAL_Driver/Src/stm32f1xx_hal_flash.c ****   */
 168:Drivers/STM32F1xx_HAL_Driver/Src/stm32f1xx_hal_flash.c **** HAL_StatusTypeDef HAL_FLASH_Program(uint32_t TypeProgram, uint32_t Address, uint64_t Data)
 169:Drivers/STM32F1xx_HAL_Driver/Src/stm32f1xx_hal_flash.c **** {
 170:Drivers/STM32F1xx_HAL_Driver/Src/stm32f1xx_hal_flash.c ****   HAL_StatusTypeDef status = HAL_ERROR;
 171:Drivers/STM32F1xx_HAL_Driver/Src/stm32f1xx_hal_flash.c ****   uint8_t index = 0;
 172:Drivers/STM32F1xx_HAL_Driver/Src/stm32f1xx_hal_flash.c ****   uint8_t nbiterations = 0;
 173:Drivers/STM32F1xx_HAL_Driver/Src/stm32f1xx_hal_flash.c ****   
 174:Drivers/STM32F1xx_HAL_Driver/Src/stm32f1xx_hal_flash.c ****   /* Process Locked */
 175:Drivers/STM32F1xx_HAL_Driver/Src/stm32f1xx_hal_flash.c ****   __HAL_LOCK(&pFlash);
 176:Drivers/STM32F1xx_HAL_Driver/Src/stm32f1xx_hal_flash.c **** 
 177:Drivers/STM32F1xx_HAL_Driver/Src/stm32f1xx_hal_flash.c ****   /* Check the parameters */
 178:Drivers/STM32F1xx_HAL_Driver/Src/stm32f1xx_hal_flash.c ****   assert_param(IS_FLASH_TYPEPROGRAM(TypeProgram));
 179:Drivers/STM32F1xx_HAL_Driver/Src/stm32f1xx_hal_flash.c ****   assert_param(IS_FLASH_PROGRAM_ADDRESS(Address));
 180:Drivers/STM32F1xx_HAL_Driver/Src/stm32f1xx_hal_flash.c **** 
 181:Drivers/STM32F1xx_HAL_Driver/Src/stm32f1xx_hal_flash.c **** #if defined(FLASH_BANK2_END)
 182:Drivers/STM32F1xx_HAL_Driver/Src/stm32f1xx_hal_flash.c ****   if(Address <= FLASH_BANK1_END)
 183:Drivers/STM32F1xx_HAL_Driver/Src/stm32f1xx_hal_flash.c ****   {
 184:Drivers/STM32F1xx_HAL_Driver/Src/stm32f1xx_hal_flash.c **** #endif /* FLASH_BANK2_END */
 185:Drivers/STM32F1xx_HAL_Driver/Src/stm32f1xx_hal_flash.c ****     /* Wait for last operation to be completed */
 186:Drivers/STM32F1xx_HAL_Driver/Src/stm32f1xx_hal_flash.c ****     status = FLASH_WaitForLastOperation(FLASH_TIMEOUT_VALUE);
 187:Drivers/STM32F1xx_HAL_Driver/Src/stm32f1xx_hal_flash.c **** #if defined(FLASH_BANK2_END)
 188:Drivers/STM32F1xx_HAL_Driver/Src/stm32f1xx_hal_flash.c ****   }
 189:Drivers/STM32F1xx_HAL_Driver/Src/stm32f1xx_hal_flash.c ****   else
 190:Drivers/STM32F1xx_HAL_Driver/Src/stm32f1xx_hal_flash.c ****   {
 191:Drivers/STM32F1xx_HAL_Driver/Src/stm32f1xx_hal_flash.c ****     /* Wait for last operation to be completed */
 192:Drivers/STM32F1xx_HAL_Driver/Src/stm32f1xx_hal_flash.c ****     status = FLASH_WaitForLastOperationBank2(FLASH_TIMEOUT_VALUE);
 193:Drivers/STM32F1xx_HAL_Driver/Src/stm32f1xx_hal_flash.c ****   }
 194:Drivers/STM32F1xx_HAL_Driver/Src/stm32f1xx_hal_flash.c **** #endif /* FLASH_BANK2_END */
 195:Drivers/STM32F1xx_HAL_Driver/Src/stm32f1xx_hal_flash.c ****   
 196:Drivers/STM32F1xx_HAL_Driver/Src/stm32f1xx_hal_flash.c ****   if(status == HAL_OK)
 197:Drivers/STM32F1xx_HAL_Driver/Src/stm32f1xx_hal_flash.c ****   {
 198:Drivers/STM32F1xx_HAL_Driver/Src/stm32f1xx_hal_flash.c ****     if(TypeProgram == FLASH_TYPEPROGRAM_HALFWORD)
 199:Drivers/STM32F1xx_HAL_Driver/Src/stm32f1xx_hal_flash.c ****     {
 200:Drivers/STM32F1xx_HAL_Driver/Src/stm32f1xx_hal_flash.c ****       /* Program halfword (16-bit) at a specified address. */
 201:Drivers/STM32F1xx_HAL_Driver/Src/stm32f1xx_hal_flash.c ****       nbiterations = 1U;
 202:Drivers/STM32F1xx_HAL_Driver/Src/stm32f1xx_hal_flash.c ****     }
 203:Drivers/STM32F1xx_HAL_Driver/Src/stm32f1xx_hal_flash.c ****     else if(TypeProgram == FLASH_TYPEPROGRAM_WORD)
ARM GAS  /tmp/ccj4n996.s 			page 5


 204:Drivers/STM32F1xx_HAL_Driver/Src/stm32f1xx_hal_flash.c ****     {
 205:Drivers/STM32F1xx_HAL_Driver/Src/stm32f1xx_hal_flash.c ****       /* Program word (32-bit = 2*16-bit) at a specified address. */
 206:Drivers/STM32F1xx_HAL_Driver/Src/stm32f1xx_hal_flash.c ****       nbiterations = 2U;
 207:Drivers/STM32F1xx_HAL_Driver/Src/stm32f1xx_hal_flash.c ****     }
 208:Drivers/STM32F1xx_HAL_Driver/Src/stm32f1xx_hal_flash.c ****     else
 209:Drivers/STM32F1xx_HAL_Driver/Src/stm32f1xx_hal_flash.c ****     {
 210:Drivers/STM32F1xx_HAL_Driver/Src/stm32f1xx_hal_flash.c ****       /* Program double word (64-bit = 4*16-bit) at a specified address. */
 211:Drivers/STM32F1xx_HAL_Driver/Src/stm32f1xx_hal_flash.c ****       nbiterations = 4U;
 212:Drivers/STM32F1xx_HAL_Driver/Src/stm32f1xx_hal_flash.c ****     }
 213:Drivers/STM32F1xx_HAL_Driver/Src/stm32f1xx_hal_flash.c **** 
 214:Drivers/STM32F1xx_HAL_Driver/Src/stm32f1xx_hal_flash.c ****     for (index = 0U; index < nbiterations; index++)
 215:Drivers/STM32F1xx_HAL_Driver/Src/stm32f1xx_hal_flash.c ****     {
 216:Drivers/STM32F1xx_HAL_Driver/Src/stm32f1xx_hal_flash.c ****       FLASH_Program_HalfWord((Address + (2U*index)), (uint16_t)(Data >> (16U*index)));
 217:Drivers/STM32F1xx_HAL_Driver/Src/stm32f1xx_hal_flash.c **** 
 218:Drivers/STM32F1xx_HAL_Driver/Src/stm32f1xx_hal_flash.c **** #if defined(FLASH_BANK2_END)
 219:Drivers/STM32F1xx_HAL_Driver/Src/stm32f1xx_hal_flash.c ****       if(Address <= FLASH_BANK1_END)
 220:Drivers/STM32F1xx_HAL_Driver/Src/stm32f1xx_hal_flash.c ****       {
 221:Drivers/STM32F1xx_HAL_Driver/Src/stm32f1xx_hal_flash.c **** #endif /* FLASH_BANK2_END */
 222:Drivers/STM32F1xx_HAL_Driver/Src/stm32f1xx_hal_flash.c ****         /* Wait for last operation to be completed */
 223:Drivers/STM32F1xx_HAL_Driver/Src/stm32f1xx_hal_flash.c ****         status = FLASH_WaitForLastOperation(FLASH_TIMEOUT_VALUE);
 224:Drivers/STM32F1xx_HAL_Driver/Src/stm32f1xx_hal_flash.c ****     
 225:Drivers/STM32F1xx_HAL_Driver/Src/stm32f1xx_hal_flash.c ****         /* If the program operation is completed, disable the PG Bit */
 226:Drivers/STM32F1xx_HAL_Driver/Src/stm32f1xx_hal_flash.c ****         CLEAR_BIT(FLASH->CR, FLASH_CR_PG);
 227:Drivers/STM32F1xx_HAL_Driver/Src/stm32f1xx_hal_flash.c **** #if defined(FLASH_BANK2_END)
 228:Drivers/STM32F1xx_HAL_Driver/Src/stm32f1xx_hal_flash.c ****       }
 229:Drivers/STM32F1xx_HAL_Driver/Src/stm32f1xx_hal_flash.c ****       else
 230:Drivers/STM32F1xx_HAL_Driver/Src/stm32f1xx_hal_flash.c ****       {
 231:Drivers/STM32F1xx_HAL_Driver/Src/stm32f1xx_hal_flash.c ****         /* Wait for last operation to be completed */
 232:Drivers/STM32F1xx_HAL_Driver/Src/stm32f1xx_hal_flash.c ****         status = FLASH_WaitForLastOperationBank2(FLASH_TIMEOUT_VALUE);
 233:Drivers/STM32F1xx_HAL_Driver/Src/stm32f1xx_hal_flash.c ****         
 234:Drivers/STM32F1xx_HAL_Driver/Src/stm32f1xx_hal_flash.c ****         /* If the program operation is completed, disable the PG Bit */
 235:Drivers/STM32F1xx_HAL_Driver/Src/stm32f1xx_hal_flash.c ****         CLEAR_BIT(FLASH->CR2, FLASH_CR2_PG);
 236:Drivers/STM32F1xx_HAL_Driver/Src/stm32f1xx_hal_flash.c ****       }
 237:Drivers/STM32F1xx_HAL_Driver/Src/stm32f1xx_hal_flash.c **** #endif /* FLASH_BANK2_END */
 238:Drivers/STM32F1xx_HAL_Driver/Src/stm32f1xx_hal_flash.c ****       /* In case of error, stop programation procedure */
 239:Drivers/STM32F1xx_HAL_Driver/Src/stm32f1xx_hal_flash.c ****       if (status != HAL_OK)
 240:Drivers/STM32F1xx_HAL_Driver/Src/stm32f1xx_hal_flash.c ****       {
 241:Drivers/STM32F1xx_HAL_Driver/Src/stm32f1xx_hal_flash.c ****         break;
 242:Drivers/STM32F1xx_HAL_Driver/Src/stm32f1xx_hal_flash.c ****       }
 243:Drivers/STM32F1xx_HAL_Driver/Src/stm32f1xx_hal_flash.c ****     }
 244:Drivers/STM32F1xx_HAL_Driver/Src/stm32f1xx_hal_flash.c ****   }
 245:Drivers/STM32F1xx_HAL_Driver/Src/stm32f1xx_hal_flash.c **** 
 246:Drivers/STM32F1xx_HAL_Driver/Src/stm32f1xx_hal_flash.c ****   /* Process Unlocked */
 247:Drivers/STM32F1xx_HAL_Driver/Src/stm32f1xx_hal_flash.c ****   __HAL_UNLOCK(&pFlash);
 248:Drivers/STM32F1xx_HAL_Driver/Src/stm32f1xx_hal_flash.c **** 
 249:Drivers/STM32F1xx_HAL_Driver/Src/stm32f1xx_hal_flash.c ****   return status;
 250:Drivers/STM32F1xx_HAL_Driver/Src/stm32f1xx_hal_flash.c **** }
 251:Drivers/STM32F1xx_HAL_Driver/Src/stm32f1xx_hal_flash.c **** 
 252:Drivers/STM32F1xx_HAL_Driver/Src/stm32f1xx_hal_flash.c **** /**
 253:Drivers/STM32F1xx_HAL_Driver/Src/stm32f1xx_hal_flash.c ****   * @brief  Program halfword, word or double word at a specified address  with interrupt enabled.
 254:Drivers/STM32F1xx_HAL_Driver/Src/stm32f1xx_hal_flash.c ****   * @note   The function HAL_FLASH_Unlock() should be called before to unlock the FLASH interface
 255:Drivers/STM32F1xx_HAL_Driver/Src/stm32f1xx_hal_flash.c ****   *         The function HAL_FLASH_Lock() should be called after to lock the FLASH interface
 256:Drivers/STM32F1xx_HAL_Driver/Src/stm32f1xx_hal_flash.c ****   *
 257:Drivers/STM32F1xx_HAL_Driver/Src/stm32f1xx_hal_flash.c ****   * @note   If an erase and a program operations are requested simultaneously,    
 258:Drivers/STM32F1xx_HAL_Driver/Src/stm32f1xx_hal_flash.c ****   *         the erase operation is performed before the program one.
 259:Drivers/STM32F1xx_HAL_Driver/Src/stm32f1xx_hal_flash.c ****   *
 260:Drivers/STM32F1xx_HAL_Driver/Src/stm32f1xx_hal_flash.c ****   * @param  TypeProgram: Indicate the way to program at a specified address.
ARM GAS  /tmp/ccj4n996.s 			page 6


 261:Drivers/STM32F1xx_HAL_Driver/Src/stm32f1xx_hal_flash.c ****   *                      This parameter can be a value of @ref FLASH_Type_Program
 262:Drivers/STM32F1xx_HAL_Driver/Src/stm32f1xx_hal_flash.c ****   * @param  Address:     Specifies the address to be programmed.
 263:Drivers/STM32F1xx_HAL_Driver/Src/stm32f1xx_hal_flash.c ****   * @param  Data:        Specifies the data to be programmed
 264:Drivers/STM32F1xx_HAL_Driver/Src/stm32f1xx_hal_flash.c ****   * 
 265:Drivers/STM32F1xx_HAL_Driver/Src/stm32f1xx_hal_flash.c ****   * @retval HAL_StatusTypeDef HAL Status
 266:Drivers/STM32F1xx_HAL_Driver/Src/stm32f1xx_hal_flash.c ****   */
 267:Drivers/STM32F1xx_HAL_Driver/Src/stm32f1xx_hal_flash.c **** HAL_StatusTypeDef HAL_FLASH_Program_IT(uint32_t TypeProgram, uint32_t Address, uint64_t Data)
 268:Drivers/STM32F1xx_HAL_Driver/Src/stm32f1xx_hal_flash.c **** {
 269:Drivers/STM32F1xx_HAL_Driver/Src/stm32f1xx_hal_flash.c ****   HAL_StatusTypeDef status = HAL_OK;
 270:Drivers/STM32F1xx_HAL_Driver/Src/stm32f1xx_hal_flash.c ****   
 271:Drivers/STM32F1xx_HAL_Driver/Src/stm32f1xx_hal_flash.c ****   /* Process Locked */
 272:Drivers/STM32F1xx_HAL_Driver/Src/stm32f1xx_hal_flash.c ****   __HAL_LOCK(&pFlash);
 273:Drivers/STM32F1xx_HAL_Driver/Src/stm32f1xx_hal_flash.c **** 
 274:Drivers/STM32F1xx_HAL_Driver/Src/stm32f1xx_hal_flash.c ****   /* Check the parameters */
 275:Drivers/STM32F1xx_HAL_Driver/Src/stm32f1xx_hal_flash.c ****   assert_param(IS_FLASH_TYPEPROGRAM(TypeProgram));
 276:Drivers/STM32F1xx_HAL_Driver/Src/stm32f1xx_hal_flash.c ****   assert_param(IS_FLASH_PROGRAM_ADDRESS(Address));
 277:Drivers/STM32F1xx_HAL_Driver/Src/stm32f1xx_hal_flash.c **** 
 278:Drivers/STM32F1xx_HAL_Driver/Src/stm32f1xx_hal_flash.c **** #if defined(FLASH_BANK2_END)
 279:Drivers/STM32F1xx_HAL_Driver/Src/stm32f1xx_hal_flash.c ****   /* If procedure already ongoing, reject the next one */
 280:Drivers/STM32F1xx_HAL_Driver/Src/stm32f1xx_hal_flash.c ****   if (pFlash.ProcedureOnGoing != FLASH_PROC_NONE)
 281:Drivers/STM32F1xx_HAL_Driver/Src/stm32f1xx_hal_flash.c ****   {
 282:Drivers/STM32F1xx_HAL_Driver/Src/stm32f1xx_hal_flash.c ****     return HAL_ERROR;
 283:Drivers/STM32F1xx_HAL_Driver/Src/stm32f1xx_hal_flash.c ****   }
 284:Drivers/STM32F1xx_HAL_Driver/Src/stm32f1xx_hal_flash.c ****   
 285:Drivers/STM32F1xx_HAL_Driver/Src/stm32f1xx_hal_flash.c ****   if(Address <= FLASH_BANK1_END)
 286:Drivers/STM32F1xx_HAL_Driver/Src/stm32f1xx_hal_flash.c ****   {
 287:Drivers/STM32F1xx_HAL_Driver/Src/stm32f1xx_hal_flash.c ****     /* Enable End of FLASH Operation and Error source interrupts */
 288:Drivers/STM32F1xx_HAL_Driver/Src/stm32f1xx_hal_flash.c ****     __HAL_FLASH_ENABLE_IT(FLASH_IT_EOP_BANK1 | FLASH_IT_ERR_BANK1);
 289:Drivers/STM32F1xx_HAL_Driver/Src/stm32f1xx_hal_flash.c **** 
 290:Drivers/STM32F1xx_HAL_Driver/Src/stm32f1xx_hal_flash.c ****   }else
 291:Drivers/STM32F1xx_HAL_Driver/Src/stm32f1xx_hal_flash.c ****   {
 292:Drivers/STM32F1xx_HAL_Driver/Src/stm32f1xx_hal_flash.c ****     /* Enable End of FLASH Operation and Error source interrupts */
 293:Drivers/STM32F1xx_HAL_Driver/Src/stm32f1xx_hal_flash.c ****     __HAL_FLASH_ENABLE_IT(FLASH_IT_EOP_BANK2 | FLASH_IT_ERR_BANK2);
 294:Drivers/STM32F1xx_HAL_Driver/Src/stm32f1xx_hal_flash.c ****   }
 295:Drivers/STM32F1xx_HAL_Driver/Src/stm32f1xx_hal_flash.c **** #else
 296:Drivers/STM32F1xx_HAL_Driver/Src/stm32f1xx_hal_flash.c ****   /* Enable End of FLASH Operation and Error source interrupts */
 297:Drivers/STM32F1xx_HAL_Driver/Src/stm32f1xx_hal_flash.c ****   __HAL_FLASH_ENABLE_IT(FLASH_IT_EOP | FLASH_IT_ERR);
 298:Drivers/STM32F1xx_HAL_Driver/Src/stm32f1xx_hal_flash.c **** #endif /* FLASH_BANK2_END */
 299:Drivers/STM32F1xx_HAL_Driver/Src/stm32f1xx_hal_flash.c ****   
 300:Drivers/STM32F1xx_HAL_Driver/Src/stm32f1xx_hal_flash.c ****   pFlash.Address = Address;
 301:Drivers/STM32F1xx_HAL_Driver/Src/stm32f1xx_hal_flash.c ****   pFlash.Data = Data;
 302:Drivers/STM32F1xx_HAL_Driver/Src/stm32f1xx_hal_flash.c **** 
 303:Drivers/STM32F1xx_HAL_Driver/Src/stm32f1xx_hal_flash.c ****   if(TypeProgram == FLASH_TYPEPROGRAM_HALFWORD)
 304:Drivers/STM32F1xx_HAL_Driver/Src/stm32f1xx_hal_flash.c ****   {
 305:Drivers/STM32F1xx_HAL_Driver/Src/stm32f1xx_hal_flash.c ****     pFlash.ProcedureOnGoing = FLASH_PROC_PROGRAMHALFWORD;
 306:Drivers/STM32F1xx_HAL_Driver/Src/stm32f1xx_hal_flash.c ****     /* Program halfword (16-bit) at a specified address. */
 307:Drivers/STM32F1xx_HAL_Driver/Src/stm32f1xx_hal_flash.c ****     pFlash.DataRemaining = 1U;
 308:Drivers/STM32F1xx_HAL_Driver/Src/stm32f1xx_hal_flash.c ****   }
 309:Drivers/STM32F1xx_HAL_Driver/Src/stm32f1xx_hal_flash.c ****   else if(TypeProgram == FLASH_TYPEPROGRAM_WORD)
 310:Drivers/STM32F1xx_HAL_Driver/Src/stm32f1xx_hal_flash.c ****   {
 311:Drivers/STM32F1xx_HAL_Driver/Src/stm32f1xx_hal_flash.c ****     pFlash.ProcedureOnGoing = FLASH_PROC_PROGRAMWORD;
 312:Drivers/STM32F1xx_HAL_Driver/Src/stm32f1xx_hal_flash.c ****     /* Program word (32-bit : 2*16-bit) at a specified address. */
 313:Drivers/STM32F1xx_HAL_Driver/Src/stm32f1xx_hal_flash.c ****     pFlash.DataRemaining = 2U;
 314:Drivers/STM32F1xx_HAL_Driver/Src/stm32f1xx_hal_flash.c ****   }
 315:Drivers/STM32F1xx_HAL_Driver/Src/stm32f1xx_hal_flash.c ****   else
 316:Drivers/STM32F1xx_HAL_Driver/Src/stm32f1xx_hal_flash.c ****   {
 317:Drivers/STM32F1xx_HAL_Driver/Src/stm32f1xx_hal_flash.c ****     pFlash.ProcedureOnGoing = FLASH_PROC_PROGRAMDOUBLEWORD;
ARM GAS  /tmp/ccj4n996.s 			page 7


 318:Drivers/STM32F1xx_HAL_Driver/Src/stm32f1xx_hal_flash.c ****     /* Program double word (64-bit : 4*16-bit) at a specified address. */
 319:Drivers/STM32F1xx_HAL_Driver/Src/stm32f1xx_hal_flash.c ****     pFlash.DataRemaining = 4U;
 320:Drivers/STM32F1xx_HAL_Driver/Src/stm32f1xx_hal_flash.c ****   }
 321:Drivers/STM32F1xx_HAL_Driver/Src/stm32f1xx_hal_flash.c **** 
 322:Drivers/STM32F1xx_HAL_Driver/Src/stm32f1xx_hal_flash.c ****   /* Program halfword (16-bit) at a specified address. */
 323:Drivers/STM32F1xx_HAL_Driver/Src/stm32f1xx_hal_flash.c ****   FLASH_Program_HalfWord(Address, (uint16_t)Data);
 324:Drivers/STM32F1xx_HAL_Driver/Src/stm32f1xx_hal_flash.c **** 
 325:Drivers/STM32F1xx_HAL_Driver/Src/stm32f1xx_hal_flash.c ****   return status;
 326:Drivers/STM32F1xx_HAL_Driver/Src/stm32f1xx_hal_flash.c **** }
 327:Drivers/STM32F1xx_HAL_Driver/Src/stm32f1xx_hal_flash.c **** 
 328:Drivers/STM32F1xx_HAL_Driver/Src/stm32f1xx_hal_flash.c **** /**
 329:Drivers/STM32F1xx_HAL_Driver/Src/stm32f1xx_hal_flash.c ****   * @brief This function handles FLASH interrupt request.
 330:Drivers/STM32F1xx_HAL_Driver/Src/stm32f1xx_hal_flash.c ****   * @retval None
 331:Drivers/STM32F1xx_HAL_Driver/Src/stm32f1xx_hal_flash.c ****   */
 332:Drivers/STM32F1xx_HAL_Driver/Src/stm32f1xx_hal_flash.c **** void HAL_FLASH_IRQHandler(void)
 333:Drivers/STM32F1xx_HAL_Driver/Src/stm32f1xx_hal_flash.c **** {
 334:Drivers/STM32F1xx_HAL_Driver/Src/stm32f1xx_hal_flash.c ****   uint32_t addresstmp = 0U;
 335:Drivers/STM32F1xx_HAL_Driver/Src/stm32f1xx_hal_flash.c ****   
 336:Drivers/STM32F1xx_HAL_Driver/Src/stm32f1xx_hal_flash.c ****   /* Check FLASH operation error flags */
 337:Drivers/STM32F1xx_HAL_Driver/Src/stm32f1xx_hal_flash.c **** #if defined(FLASH_BANK2_END)
 338:Drivers/STM32F1xx_HAL_Driver/Src/stm32f1xx_hal_flash.c ****   if(__HAL_FLASH_GET_FLAG(FLASH_FLAG_WRPERR_BANK1) || __HAL_FLASH_GET_FLAG(FLASH_FLAG_PGERR_BANK1) 
 339:Drivers/STM32F1xx_HAL_Driver/Src/stm32f1xx_hal_flash.c ****     (__HAL_FLASH_GET_FLAG(FLASH_FLAG_WRPERR_BANK2) || __HAL_FLASH_GET_FLAG(FLASH_FLAG_PGERR_BANK2))
 340:Drivers/STM32F1xx_HAL_Driver/Src/stm32f1xx_hal_flash.c **** #else
 341:Drivers/STM32F1xx_HAL_Driver/Src/stm32f1xx_hal_flash.c ****   if(__HAL_FLASH_GET_FLAG(FLASH_FLAG_WRPERR) ||__HAL_FLASH_GET_FLAG(FLASH_FLAG_PGERR))
 342:Drivers/STM32F1xx_HAL_Driver/Src/stm32f1xx_hal_flash.c **** #endif /* FLASH_BANK2_END */
 343:Drivers/STM32F1xx_HAL_Driver/Src/stm32f1xx_hal_flash.c ****   {
 344:Drivers/STM32F1xx_HAL_Driver/Src/stm32f1xx_hal_flash.c ****     /* Return the faulty address */
 345:Drivers/STM32F1xx_HAL_Driver/Src/stm32f1xx_hal_flash.c ****     addresstmp = pFlash.Address;
 346:Drivers/STM32F1xx_HAL_Driver/Src/stm32f1xx_hal_flash.c ****     /* Reset address */
 347:Drivers/STM32F1xx_HAL_Driver/Src/stm32f1xx_hal_flash.c ****     pFlash.Address = 0xFFFFFFFFU;
 348:Drivers/STM32F1xx_HAL_Driver/Src/stm32f1xx_hal_flash.c ****   
 349:Drivers/STM32F1xx_HAL_Driver/Src/stm32f1xx_hal_flash.c ****     /* Save the Error code */
 350:Drivers/STM32F1xx_HAL_Driver/Src/stm32f1xx_hal_flash.c ****     FLASH_SetErrorCode();
 351:Drivers/STM32F1xx_HAL_Driver/Src/stm32f1xx_hal_flash.c ****     
 352:Drivers/STM32F1xx_HAL_Driver/Src/stm32f1xx_hal_flash.c ****     /* FLASH error interrupt user callback */
 353:Drivers/STM32F1xx_HAL_Driver/Src/stm32f1xx_hal_flash.c ****     HAL_FLASH_OperationErrorCallback(addresstmp);
 354:Drivers/STM32F1xx_HAL_Driver/Src/stm32f1xx_hal_flash.c **** 
 355:Drivers/STM32F1xx_HAL_Driver/Src/stm32f1xx_hal_flash.c ****     /* Stop the procedure ongoing */
 356:Drivers/STM32F1xx_HAL_Driver/Src/stm32f1xx_hal_flash.c ****     pFlash.ProcedureOnGoing = FLASH_PROC_NONE;
 357:Drivers/STM32F1xx_HAL_Driver/Src/stm32f1xx_hal_flash.c ****   }
 358:Drivers/STM32F1xx_HAL_Driver/Src/stm32f1xx_hal_flash.c **** 
 359:Drivers/STM32F1xx_HAL_Driver/Src/stm32f1xx_hal_flash.c ****   /* Check FLASH End of Operation flag  */
 360:Drivers/STM32F1xx_HAL_Driver/Src/stm32f1xx_hal_flash.c **** #if defined(FLASH_BANK2_END)
 361:Drivers/STM32F1xx_HAL_Driver/Src/stm32f1xx_hal_flash.c ****   if(__HAL_FLASH_GET_FLAG(FLASH_FLAG_EOP_BANK1))
 362:Drivers/STM32F1xx_HAL_Driver/Src/stm32f1xx_hal_flash.c ****   {
 363:Drivers/STM32F1xx_HAL_Driver/Src/stm32f1xx_hal_flash.c ****     /* Clear FLASH End of Operation pending bit */
 364:Drivers/STM32F1xx_HAL_Driver/Src/stm32f1xx_hal_flash.c ****     __HAL_FLASH_CLEAR_FLAG(FLASH_FLAG_EOP_BANK1);
 365:Drivers/STM32F1xx_HAL_Driver/Src/stm32f1xx_hal_flash.c **** #else
 366:Drivers/STM32F1xx_HAL_Driver/Src/stm32f1xx_hal_flash.c ****   if(__HAL_FLASH_GET_FLAG(FLASH_FLAG_EOP))
 367:Drivers/STM32F1xx_HAL_Driver/Src/stm32f1xx_hal_flash.c ****   {
 368:Drivers/STM32F1xx_HAL_Driver/Src/stm32f1xx_hal_flash.c ****     /* Clear FLASH End of Operation pending bit */
 369:Drivers/STM32F1xx_HAL_Driver/Src/stm32f1xx_hal_flash.c ****     __HAL_FLASH_CLEAR_FLAG(FLASH_FLAG_EOP);
 370:Drivers/STM32F1xx_HAL_Driver/Src/stm32f1xx_hal_flash.c **** #endif /* FLASH_BANK2_END */
 371:Drivers/STM32F1xx_HAL_Driver/Src/stm32f1xx_hal_flash.c ****     
 372:Drivers/STM32F1xx_HAL_Driver/Src/stm32f1xx_hal_flash.c ****     /* Process can continue only if no error detected */
 373:Drivers/STM32F1xx_HAL_Driver/Src/stm32f1xx_hal_flash.c ****     if(pFlash.ProcedureOnGoing != FLASH_PROC_NONE)
 374:Drivers/STM32F1xx_HAL_Driver/Src/stm32f1xx_hal_flash.c ****     {
ARM GAS  /tmp/ccj4n996.s 			page 8


 375:Drivers/STM32F1xx_HAL_Driver/Src/stm32f1xx_hal_flash.c ****       if(pFlash.ProcedureOnGoing == FLASH_PROC_PAGEERASE)
 376:Drivers/STM32F1xx_HAL_Driver/Src/stm32f1xx_hal_flash.c ****       {
 377:Drivers/STM32F1xx_HAL_Driver/Src/stm32f1xx_hal_flash.c ****         /* Nb of pages to erased can be decreased */
 378:Drivers/STM32F1xx_HAL_Driver/Src/stm32f1xx_hal_flash.c ****         pFlash.DataRemaining--;
 379:Drivers/STM32F1xx_HAL_Driver/Src/stm32f1xx_hal_flash.c **** 
 380:Drivers/STM32F1xx_HAL_Driver/Src/stm32f1xx_hal_flash.c ****         /* Check if there are still pages to erase */
 381:Drivers/STM32F1xx_HAL_Driver/Src/stm32f1xx_hal_flash.c ****         if(pFlash.DataRemaining != 0U)
 382:Drivers/STM32F1xx_HAL_Driver/Src/stm32f1xx_hal_flash.c ****         {
 383:Drivers/STM32F1xx_HAL_Driver/Src/stm32f1xx_hal_flash.c ****           addresstmp = pFlash.Address;
 384:Drivers/STM32F1xx_HAL_Driver/Src/stm32f1xx_hal_flash.c ****           /*Indicate user which sector has been erased */
 385:Drivers/STM32F1xx_HAL_Driver/Src/stm32f1xx_hal_flash.c ****           HAL_FLASH_EndOfOperationCallback(addresstmp);
 386:Drivers/STM32F1xx_HAL_Driver/Src/stm32f1xx_hal_flash.c **** 
 387:Drivers/STM32F1xx_HAL_Driver/Src/stm32f1xx_hal_flash.c ****           /*Increment sector number*/
 388:Drivers/STM32F1xx_HAL_Driver/Src/stm32f1xx_hal_flash.c ****           addresstmp = pFlash.Address + FLASH_PAGE_SIZE;
 389:Drivers/STM32F1xx_HAL_Driver/Src/stm32f1xx_hal_flash.c ****           pFlash.Address = addresstmp;
 390:Drivers/STM32F1xx_HAL_Driver/Src/stm32f1xx_hal_flash.c **** 
 391:Drivers/STM32F1xx_HAL_Driver/Src/stm32f1xx_hal_flash.c ****           /* If the erase operation is completed, disable the PER Bit */
 392:Drivers/STM32F1xx_HAL_Driver/Src/stm32f1xx_hal_flash.c ****           CLEAR_BIT(FLASH->CR, FLASH_CR_PER);
 393:Drivers/STM32F1xx_HAL_Driver/Src/stm32f1xx_hal_flash.c **** 
 394:Drivers/STM32F1xx_HAL_Driver/Src/stm32f1xx_hal_flash.c ****           FLASH_PageErase(addresstmp);
 395:Drivers/STM32F1xx_HAL_Driver/Src/stm32f1xx_hal_flash.c ****         }
 396:Drivers/STM32F1xx_HAL_Driver/Src/stm32f1xx_hal_flash.c ****         else
 397:Drivers/STM32F1xx_HAL_Driver/Src/stm32f1xx_hal_flash.c ****         {
 398:Drivers/STM32F1xx_HAL_Driver/Src/stm32f1xx_hal_flash.c ****           /* No more pages to Erase, user callback can be called. */
 399:Drivers/STM32F1xx_HAL_Driver/Src/stm32f1xx_hal_flash.c ****           /* Reset Sector and stop Erase pages procedure */
 400:Drivers/STM32F1xx_HAL_Driver/Src/stm32f1xx_hal_flash.c ****           pFlash.Address = addresstmp = 0xFFFFFFFFU;
 401:Drivers/STM32F1xx_HAL_Driver/Src/stm32f1xx_hal_flash.c ****           pFlash.ProcedureOnGoing = FLASH_PROC_NONE;
 402:Drivers/STM32F1xx_HAL_Driver/Src/stm32f1xx_hal_flash.c ****           /* FLASH EOP interrupt user callback */
 403:Drivers/STM32F1xx_HAL_Driver/Src/stm32f1xx_hal_flash.c ****           HAL_FLASH_EndOfOperationCallback(addresstmp);
 404:Drivers/STM32F1xx_HAL_Driver/Src/stm32f1xx_hal_flash.c ****         }
 405:Drivers/STM32F1xx_HAL_Driver/Src/stm32f1xx_hal_flash.c ****       }
 406:Drivers/STM32F1xx_HAL_Driver/Src/stm32f1xx_hal_flash.c ****       else if(pFlash.ProcedureOnGoing == FLASH_PROC_MASSERASE)
 407:Drivers/STM32F1xx_HAL_Driver/Src/stm32f1xx_hal_flash.c ****       {
 408:Drivers/STM32F1xx_HAL_Driver/Src/stm32f1xx_hal_flash.c ****         /* Operation is completed, disable the MER Bit */
 409:Drivers/STM32F1xx_HAL_Driver/Src/stm32f1xx_hal_flash.c ****         CLEAR_BIT(FLASH->CR, FLASH_CR_MER);
 410:Drivers/STM32F1xx_HAL_Driver/Src/stm32f1xx_hal_flash.c **** 
 411:Drivers/STM32F1xx_HAL_Driver/Src/stm32f1xx_hal_flash.c **** #if defined(FLASH_BANK2_END)
 412:Drivers/STM32F1xx_HAL_Driver/Src/stm32f1xx_hal_flash.c ****         /* Stop Mass Erase procedure if no pending mass erase on other bank */
 413:Drivers/STM32F1xx_HAL_Driver/Src/stm32f1xx_hal_flash.c ****         if (HAL_IS_BIT_CLR(FLASH->CR2, FLASH_CR2_MER))
 414:Drivers/STM32F1xx_HAL_Driver/Src/stm32f1xx_hal_flash.c ****         {
 415:Drivers/STM32F1xx_HAL_Driver/Src/stm32f1xx_hal_flash.c **** #endif /* FLASH_BANK2_END */
 416:Drivers/STM32F1xx_HAL_Driver/Src/stm32f1xx_hal_flash.c ****           /* MassErase ended. Return the selected bank */
 417:Drivers/STM32F1xx_HAL_Driver/Src/stm32f1xx_hal_flash.c ****           /* FLASH EOP interrupt user callback */
 418:Drivers/STM32F1xx_HAL_Driver/Src/stm32f1xx_hal_flash.c ****           HAL_FLASH_EndOfOperationCallback(0U);
 419:Drivers/STM32F1xx_HAL_Driver/Src/stm32f1xx_hal_flash.c **** 
 420:Drivers/STM32F1xx_HAL_Driver/Src/stm32f1xx_hal_flash.c ****           /* Stop Mass Erase procedure*/
 421:Drivers/STM32F1xx_HAL_Driver/Src/stm32f1xx_hal_flash.c ****           pFlash.ProcedureOnGoing = FLASH_PROC_NONE;
 422:Drivers/STM32F1xx_HAL_Driver/Src/stm32f1xx_hal_flash.c ****         }
 423:Drivers/STM32F1xx_HAL_Driver/Src/stm32f1xx_hal_flash.c **** #if defined(FLASH_BANK2_END)
 424:Drivers/STM32F1xx_HAL_Driver/Src/stm32f1xx_hal_flash.c ****       }
 425:Drivers/STM32F1xx_HAL_Driver/Src/stm32f1xx_hal_flash.c **** #endif /* FLASH_BANK2_END */
 426:Drivers/STM32F1xx_HAL_Driver/Src/stm32f1xx_hal_flash.c ****       else
 427:Drivers/STM32F1xx_HAL_Driver/Src/stm32f1xx_hal_flash.c ****       {
 428:Drivers/STM32F1xx_HAL_Driver/Src/stm32f1xx_hal_flash.c ****         /* Nb of 16-bit data to program can be decreased */
 429:Drivers/STM32F1xx_HAL_Driver/Src/stm32f1xx_hal_flash.c ****         pFlash.DataRemaining--;
 430:Drivers/STM32F1xx_HAL_Driver/Src/stm32f1xx_hal_flash.c ****         
 431:Drivers/STM32F1xx_HAL_Driver/Src/stm32f1xx_hal_flash.c ****         /* Check if there are still 16-bit data to program */
ARM GAS  /tmp/ccj4n996.s 			page 9


 432:Drivers/STM32F1xx_HAL_Driver/Src/stm32f1xx_hal_flash.c ****         if(pFlash.DataRemaining != 0U)
 433:Drivers/STM32F1xx_HAL_Driver/Src/stm32f1xx_hal_flash.c ****         {
 434:Drivers/STM32F1xx_HAL_Driver/Src/stm32f1xx_hal_flash.c ****           /* Increment address to 16-bit */
 435:Drivers/STM32F1xx_HAL_Driver/Src/stm32f1xx_hal_flash.c ****           pFlash.Address += 2U;
 436:Drivers/STM32F1xx_HAL_Driver/Src/stm32f1xx_hal_flash.c ****           addresstmp = pFlash.Address;
 437:Drivers/STM32F1xx_HAL_Driver/Src/stm32f1xx_hal_flash.c ****           
 438:Drivers/STM32F1xx_HAL_Driver/Src/stm32f1xx_hal_flash.c ****           /* Shift to have next 16-bit data */
 439:Drivers/STM32F1xx_HAL_Driver/Src/stm32f1xx_hal_flash.c ****           pFlash.Data = (pFlash.Data >> 16U);
 440:Drivers/STM32F1xx_HAL_Driver/Src/stm32f1xx_hal_flash.c ****           
 441:Drivers/STM32F1xx_HAL_Driver/Src/stm32f1xx_hal_flash.c ****           /* Operation is completed, disable the PG Bit */
 442:Drivers/STM32F1xx_HAL_Driver/Src/stm32f1xx_hal_flash.c ****           CLEAR_BIT(FLASH->CR, FLASH_CR_PG);
 443:Drivers/STM32F1xx_HAL_Driver/Src/stm32f1xx_hal_flash.c **** 
 444:Drivers/STM32F1xx_HAL_Driver/Src/stm32f1xx_hal_flash.c ****           /*Program halfword (16-bit) at a specified address.*/
 445:Drivers/STM32F1xx_HAL_Driver/Src/stm32f1xx_hal_flash.c ****           FLASH_Program_HalfWord(addresstmp, (uint16_t)pFlash.Data);
 446:Drivers/STM32F1xx_HAL_Driver/Src/stm32f1xx_hal_flash.c ****         }
 447:Drivers/STM32F1xx_HAL_Driver/Src/stm32f1xx_hal_flash.c ****         else
 448:Drivers/STM32F1xx_HAL_Driver/Src/stm32f1xx_hal_flash.c ****         {
 449:Drivers/STM32F1xx_HAL_Driver/Src/stm32f1xx_hal_flash.c ****           /* Program ended. Return the selected address */
 450:Drivers/STM32F1xx_HAL_Driver/Src/stm32f1xx_hal_flash.c ****           /* FLASH EOP interrupt user callback */
 451:Drivers/STM32F1xx_HAL_Driver/Src/stm32f1xx_hal_flash.c ****           if (pFlash.ProcedureOnGoing == FLASH_PROC_PROGRAMHALFWORD)
 452:Drivers/STM32F1xx_HAL_Driver/Src/stm32f1xx_hal_flash.c ****           {
 453:Drivers/STM32F1xx_HAL_Driver/Src/stm32f1xx_hal_flash.c ****             HAL_FLASH_EndOfOperationCallback(pFlash.Address);
 454:Drivers/STM32F1xx_HAL_Driver/Src/stm32f1xx_hal_flash.c ****           }
 455:Drivers/STM32F1xx_HAL_Driver/Src/stm32f1xx_hal_flash.c ****           else if (pFlash.ProcedureOnGoing == FLASH_PROC_PROGRAMWORD)
 456:Drivers/STM32F1xx_HAL_Driver/Src/stm32f1xx_hal_flash.c ****           {
 457:Drivers/STM32F1xx_HAL_Driver/Src/stm32f1xx_hal_flash.c ****             HAL_FLASH_EndOfOperationCallback(pFlash.Address - 2U);
 458:Drivers/STM32F1xx_HAL_Driver/Src/stm32f1xx_hal_flash.c ****           }
 459:Drivers/STM32F1xx_HAL_Driver/Src/stm32f1xx_hal_flash.c ****           else 
 460:Drivers/STM32F1xx_HAL_Driver/Src/stm32f1xx_hal_flash.c ****           {
 461:Drivers/STM32F1xx_HAL_Driver/Src/stm32f1xx_hal_flash.c ****             HAL_FLASH_EndOfOperationCallback(pFlash.Address - 6U);
 462:Drivers/STM32F1xx_HAL_Driver/Src/stm32f1xx_hal_flash.c ****           }
 463:Drivers/STM32F1xx_HAL_Driver/Src/stm32f1xx_hal_flash.c ****         
 464:Drivers/STM32F1xx_HAL_Driver/Src/stm32f1xx_hal_flash.c ****           /* Reset Address and stop Program procedure */
 465:Drivers/STM32F1xx_HAL_Driver/Src/stm32f1xx_hal_flash.c ****           pFlash.Address = 0xFFFFFFFFU;
 466:Drivers/STM32F1xx_HAL_Driver/Src/stm32f1xx_hal_flash.c ****           pFlash.ProcedureOnGoing = FLASH_PROC_NONE;
 467:Drivers/STM32F1xx_HAL_Driver/Src/stm32f1xx_hal_flash.c ****         }
 468:Drivers/STM32F1xx_HAL_Driver/Src/stm32f1xx_hal_flash.c ****       }
 469:Drivers/STM32F1xx_HAL_Driver/Src/stm32f1xx_hal_flash.c ****     }
 470:Drivers/STM32F1xx_HAL_Driver/Src/stm32f1xx_hal_flash.c ****   }
 471:Drivers/STM32F1xx_HAL_Driver/Src/stm32f1xx_hal_flash.c ****   
 472:Drivers/STM32F1xx_HAL_Driver/Src/stm32f1xx_hal_flash.c **** #if defined(FLASH_BANK2_END)
 473:Drivers/STM32F1xx_HAL_Driver/Src/stm32f1xx_hal_flash.c ****   /* Check FLASH End of Operation flag  */
 474:Drivers/STM32F1xx_HAL_Driver/Src/stm32f1xx_hal_flash.c ****   if(__HAL_FLASH_GET_FLAG( FLASH_FLAG_EOP_BANK2))
 475:Drivers/STM32F1xx_HAL_Driver/Src/stm32f1xx_hal_flash.c ****   {
 476:Drivers/STM32F1xx_HAL_Driver/Src/stm32f1xx_hal_flash.c ****     /* Clear FLASH End of Operation pending bit */
 477:Drivers/STM32F1xx_HAL_Driver/Src/stm32f1xx_hal_flash.c ****     __HAL_FLASH_CLEAR_FLAG(FLASH_FLAG_EOP_BANK2);
 478:Drivers/STM32F1xx_HAL_Driver/Src/stm32f1xx_hal_flash.c ****     
 479:Drivers/STM32F1xx_HAL_Driver/Src/stm32f1xx_hal_flash.c ****     /* Process can continue only if no error detected */
 480:Drivers/STM32F1xx_HAL_Driver/Src/stm32f1xx_hal_flash.c ****     if(pFlash.ProcedureOnGoing != FLASH_PROC_NONE)
 481:Drivers/STM32F1xx_HAL_Driver/Src/stm32f1xx_hal_flash.c ****     {
 482:Drivers/STM32F1xx_HAL_Driver/Src/stm32f1xx_hal_flash.c ****       if(pFlash.ProcedureOnGoing == FLASH_PROC_PAGEERASE)
 483:Drivers/STM32F1xx_HAL_Driver/Src/stm32f1xx_hal_flash.c ****       {
 484:Drivers/STM32F1xx_HAL_Driver/Src/stm32f1xx_hal_flash.c ****         /* Nb of pages to erased can be decreased */
 485:Drivers/STM32F1xx_HAL_Driver/Src/stm32f1xx_hal_flash.c ****         pFlash.DataRemaining--;
 486:Drivers/STM32F1xx_HAL_Driver/Src/stm32f1xx_hal_flash.c ****         
 487:Drivers/STM32F1xx_HAL_Driver/Src/stm32f1xx_hal_flash.c ****         /* Check if there are still pages to erase*/
 488:Drivers/STM32F1xx_HAL_Driver/Src/stm32f1xx_hal_flash.c ****         if(pFlash.DataRemaining != 0U)
ARM GAS  /tmp/ccj4n996.s 			page 10


 489:Drivers/STM32F1xx_HAL_Driver/Src/stm32f1xx_hal_flash.c ****         {
 490:Drivers/STM32F1xx_HAL_Driver/Src/stm32f1xx_hal_flash.c ****           /* Indicate user which page address has been erased*/
 491:Drivers/STM32F1xx_HAL_Driver/Src/stm32f1xx_hal_flash.c ****           HAL_FLASH_EndOfOperationCallback(pFlash.Address);
 492:Drivers/STM32F1xx_HAL_Driver/Src/stm32f1xx_hal_flash.c ****         
 493:Drivers/STM32F1xx_HAL_Driver/Src/stm32f1xx_hal_flash.c ****           /* Increment page address to next page */
 494:Drivers/STM32F1xx_HAL_Driver/Src/stm32f1xx_hal_flash.c ****           pFlash.Address += FLASH_PAGE_SIZE;
 495:Drivers/STM32F1xx_HAL_Driver/Src/stm32f1xx_hal_flash.c ****           addresstmp = pFlash.Address;
 496:Drivers/STM32F1xx_HAL_Driver/Src/stm32f1xx_hal_flash.c **** 
 497:Drivers/STM32F1xx_HAL_Driver/Src/stm32f1xx_hal_flash.c ****           /* Operation is completed, disable the PER Bit */
 498:Drivers/STM32F1xx_HAL_Driver/Src/stm32f1xx_hal_flash.c ****           CLEAR_BIT(FLASH->CR2, FLASH_CR2_PER);
 499:Drivers/STM32F1xx_HAL_Driver/Src/stm32f1xx_hal_flash.c **** 
 500:Drivers/STM32F1xx_HAL_Driver/Src/stm32f1xx_hal_flash.c ****           FLASH_PageErase(addresstmp);
 501:Drivers/STM32F1xx_HAL_Driver/Src/stm32f1xx_hal_flash.c ****         }
 502:Drivers/STM32F1xx_HAL_Driver/Src/stm32f1xx_hal_flash.c ****         else
 503:Drivers/STM32F1xx_HAL_Driver/Src/stm32f1xx_hal_flash.c ****         {
 504:Drivers/STM32F1xx_HAL_Driver/Src/stm32f1xx_hal_flash.c ****           /*No more pages to Erase*/
 505:Drivers/STM32F1xx_HAL_Driver/Src/stm32f1xx_hal_flash.c ****           
 506:Drivers/STM32F1xx_HAL_Driver/Src/stm32f1xx_hal_flash.c ****           /*Reset Address and stop Erase pages procedure*/
 507:Drivers/STM32F1xx_HAL_Driver/Src/stm32f1xx_hal_flash.c ****           pFlash.Address = 0xFFFFFFFFU;
 508:Drivers/STM32F1xx_HAL_Driver/Src/stm32f1xx_hal_flash.c ****           pFlash.ProcedureOnGoing = FLASH_PROC_NONE;
 509:Drivers/STM32F1xx_HAL_Driver/Src/stm32f1xx_hal_flash.c **** 
 510:Drivers/STM32F1xx_HAL_Driver/Src/stm32f1xx_hal_flash.c ****           /* FLASH EOP interrupt user callback */
 511:Drivers/STM32F1xx_HAL_Driver/Src/stm32f1xx_hal_flash.c ****           HAL_FLASH_EndOfOperationCallback(pFlash.Address);
 512:Drivers/STM32F1xx_HAL_Driver/Src/stm32f1xx_hal_flash.c ****         }
 513:Drivers/STM32F1xx_HAL_Driver/Src/stm32f1xx_hal_flash.c ****       }
 514:Drivers/STM32F1xx_HAL_Driver/Src/stm32f1xx_hal_flash.c ****       else if(pFlash.ProcedureOnGoing == FLASH_PROC_MASSERASE)
 515:Drivers/STM32F1xx_HAL_Driver/Src/stm32f1xx_hal_flash.c ****       {
 516:Drivers/STM32F1xx_HAL_Driver/Src/stm32f1xx_hal_flash.c ****         /* Operation is completed, disable the MER Bit */
 517:Drivers/STM32F1xx_HAL_Driver/Src/stm32f1xx_hal_flash.c ****         CLEAR_BIT(FLASH->CR2, FLASH_CR2_MER);
 518:Drivers/STM32F1xx_HAL_Driver/Src/stm32f1xx_hal_flash.c **** 
 519:Drivers/STM32F1xx_HAL_Driver/Src/stm32f1xx_hal_flash.c ****         if (HAL_IS_BIT_CLR(FLASH->CR, FLASH_CR_MER))
 520:Drivers/STM32F1xx_HAL_Driver/Src/stm32f1xx_hal_flash.c ****         {
 521:Drivers/STM32F1xx_HAL_Driver/Src/stm32f1xx_hal_flash.c ****           /* MassErase ended. Return the selected bank*/
 522:Drivers/STM32F1xx_HAL_Driver/Src/stm32f1xx_hal_flash.c ****           /* FLASH EOP interrupt user callback */
 523:Drivers/STM32F1xx_HAL_Driver/Src/stm32f1xx_hal_flash.c ****           HAL_FLASH_EndOfOperationCallback(0U);
 524:Drivers/STM32F1xx_HAL_Driver/Src/stm32f1xx_hal_flash.c ****         
 525:Drivers/STM32F1xx_HAL_Driver/Src/stm32f1xx_hal_flash.c ****           pFlash.ProcedureOnGoing = FLASH_PROC_NONE;
 526:Drivers/STM32F1xx_HAL_Driver/Src/stm32f1xx_hal_flash.c ****         }
 527:Drivers/STM32F1xx_HAL_Driver/Src/stm32f1xx_hal_flash.c ****       }
 528:Drivers/STM32F1xx_HAL_Driver/Src/stm32f1xx_hal_flash.c ****       else
 529:Drivers/STM32F1xx_HAL_Driver/Src/stm32f1xx_hal_flash.c ****       {
 530:Drivers/STM32F1xx_HAL_Driver/Src/stm32f1xx_hal_flash.c ****         /* Nb of 16-bit data to program can be decreased */
 531:Drivers/STM32F1xx_HAL_Driver/Src/stm32f1xx_hal_flash.c ****         pFlash.DataRemaining--;
 532:Drivers/STM32F1xx_HAL_Driver/Src/stm32f1xx_hal_flash.c ****         
 533:Drivers/STM32F1xx_HAL_Driver/Src/stm32f1xx_hal_flash.c ****         /* Check if there are still 16-bit data to program */
 534:Drivers/STM32F1xx_HAL_Driver/Src/stm32f1xx_hal_flash.c ****         if(pFlash.DataRemaining != 0U)
 535:Drivers/STM32F1xx_HAL_Driver/Src/stm32f1xx_hal_flash.c ****         {
 536:Drivers/STM32F1xx_HAL_Driver/Src/stm32f1xx_hal_flash.c ****           /* Increment address to 16-bit */
 537:Drivers/STM32F1xx_HAL_Driver/Src/stm32f1xx_hal_flash.c ****           pFlash.Address += 2U;
 538:Drivers/STM32F1xx_HAL_Driver/Src/stm32f1xx_hal_flash.c ****           addresstmp = pFlash.Address;
 539:Drivers/STM32F1xx_HAL_Driver/Src/stm32f1xx_hal_flash.c ****           
 540:Drivers/STM32F1xx_HAL_Driver/Src/stm32f1xx_hal_flash.c ****           /* Shift to have next 16-bit data */
 541:Drivers/STM32F1xx_HAL_Driver/Src/stm32f1xx_hal_flash.c ****           pFlash.Data = (pFlash.Data >> 16U);
 542:Drivers/STM32F1xx_HAL_Driver/Src/stm32f1xx_hal_flash.c ****           
 543:Drivers/STM32F1xx_HAL_Driver/Src/stm32f1xx_hal_flash.c ****           /* Operation is completed, disable the PG Bit */
 544:Drivers/STM32F1xx_HAL_Driver/Src/stm32f1xx_hal_flash.c ****           CLEAR_BIT(FLASH->CR2, FLASH_CR2_PG);
 545:Drivers/STM32F1xx_HAL_Driver/Src/stm32f1xx_hal_flash.c **** 
ARM GAS  /tmp/ccj4n996.s 			page 11


 546:Drivers/STM32F1xx_HAL_Driver/Src/stm32f1xx_hal_flash.c ****           /*Program halfword (16-bit) at a specified address.*/
 547:Drivers/STM32F1xx_HAL_Driver/Src/stm32f1xx_hal_flash.c ****           FLASH_Program_HalfWord(addresstmp, (uint16_t)pFlash.Data);
 548:Drivers/STM32F1xx_HAL_Driver/Src/stm32f1xx_hal_flash.c ****         }
 549:Drivers/STM32F1xx_HAL_Driver/Src/stm32f1xx_hal_flash.c ****         else
 550:Drivers/STM32F1xx_HAL_Driver/Src/stm32f1xx_hal_flash.c ****         {
 551:Drivers/STM32F1xx_HAL_Driver/Src/stm32f1xx_hal_flash.c ****           /*Program ended. Return the selected address*/
 552:Drivers/STM32F1xx_HAL_Driver/Src/stm32f1xx_hal_flash.c ****           /* FLASH EOP interrupt user callback */
 553:Drivers/STM32F1xx_HAL_Driver/Src/stm32f1xx_hal_flash.c ****           if (pFlash.ProcedureOnGoing == FLASH_PROC_PROGRAMHALFWORD)
 554:Drivers/STM32F1xx_HAL_Driver/Src/stm32f1xx_hal_flash.c ****           {
 555:Drivers/STM32F1xx_HAL_Driver/Src/stm32f1xx_hal_flash.c ****             HAL_FLASH_EndOfOperationCallback(pFlash.Address);
 556:Drivers/STM32F1xx_HAL_Driver/Src/stm32f1xx_hal_flash.c ****           }
 557:Drivers/STM32F1xx_HAL_Driver/Src/stm32f1xx_hal_flash.c ****           else if (pFlash.ProcedureOnGoing == FLASH_PROC_PROGRAMWORD)
 558:Drivers/STM32F1xx_HAL_Driver/Src/stm32f1xx_hal_flash.c ****           {
 559:Drivers/STM32F1xx_HAL_Driver/Src/stm32f1xx_hal_flash.c ****             HAL_FLASH_EndOfOperationCallback(pFlash.Address-2U);
 560:Drivers/STM32F1xx_HAL_Driver/Src/stm32f1xx_hal_flash.c ****           }
 561:Drivers/STM32F1xx_HAL_Driver/Src/stm32f1xx_hal_flash.c ****           else 
 562:Drivers/STM32F1xx_HAL_Driver/Src/stm32f1xx_hal_flash.c ****           {
 563:Drivers/STM32F1xx_HAL_Driver/Src/stm32f1xx_hal_flash.c ****             HAL_FLASH_EndOfOperationCallback(pFlash.Address-6U);
 564:Drivers/STM32F1xx_HAL_Driver/Src/stm32f1xx_hal_flash.c ****           }
 565:Drivers/STM32F1xx_HAL_Driver/Src/stm32f1xx_hal_flash.c ****           
 566:Drivers/STM32F1xx_HAL_Driver/Src/stm32f1xx_hal_flash.c ****           /* Reset Address and stop Program procedure*/
 567:Drivers/STM32F1xx_HAL_Driver/Src/stm32f1xx_hal_flash.c ****           pFlash.Address = 0xFFFFFFFFU;
 568:Drivers/STM32F1xx_HAL_Driver/Src/stm32f1xx_hal_flash.c ****           pFlash.ProcedureOnGoing = FLASH_PROC_NONE;
 569:Drivers/STM32F1xx_HAL_Driver/Src/stm32f1xx_hal_flash.c ****         }
 570:Drivers/STM32F1xx_HAL_Driver/Src/stm32f1xx_hal_flash.c ****       }
 571:Drivers/STM32F1xx_HAL_Driver/Src/stm32f1xx_hal_flash.c ****     }
 572:Drivers/STM32F1xx_HAL_Driver/Src/stm32f1xx_hal_flash.c ****   }
 573:Drivers/STM32F1xx_HAL_Driver/Src/stm32f1xx_hal_flash.c **** #endif 
 574:Drivers/STM32F1xx_HAL_Driver/Src/stm32f1xx_hal_flash.c **** 
 575:Drivers/STM32F1xx_HAL_Driver/Src/stm32f1xx_hal_flash.c ****   if(pFlash.ProcedureOnGoing == FLASH_PROC_NONE)
 576:Drivers/STM32F1xx_HAL_Driver/Src/stm32f1xx_hal_flash.c ****   {
 577:Drivers/STM32F1xx_HAL_Driver/Src/stm32f1xx_hal_flash.c **** #if defined(FLASH_BANK2_END)
 578:Drivers/STM32F1xx_HAL_Driver/Src/stm32f1xx_hal_flash.c ****     /* Operation is completed, disable the PG, PER and MER Bits for both bank */
 579:Drivers/STM32F1xx_HAL_Driver/Src/stm32f1xx_hal_flash.c ****     CLEAR_BIT(FLASH->CR, (FLASH_CR_PG | FLASH_CR_PER | FLASH_CR_MER));
 580:Drivers/STM32F1xx_HAL_Driver/Src/stm32f1xx_hal_flash.c ****     CLEAR_BIT(FLASH->CR2, (FLASH_CR2_PG | FLASH_CR2_PER | FLASH_CR2_MER));  
 581:Drivers/STM32F1xx_HAL_Driver/Src/stm32f1xx_hal_flash.c ****   
 582:Drivers/STM32F1xx_HAL_Driver/Src/stm32f1xx_hal_flash.c ****     /* Disable End of FLASH Operation and Error source interrupts for both banks */
 583:Drivers/STM32F1xx_HAL_Driver/Src/stm32f1xx_hal_flash.c ****     __HAL_FLASH_DISABLE_IT(FLASH_IT_EOP_BANK1 | FLASH_IT_ERR_BANK1 | FLASH_IT_EOP_BANK2 | FLASH_IT_
 584:Drivers/STM32F1xx_HAL_Driver/Src/stm32f1xx_hal_flash.c **** #else
 585:Drivers/STM32F1xx_HAL_Driver/Src/stm32f1xx_hal_flash.c ****     /* Operation is completed, disable the PG, PER and MER Bits */
 586:Drivers/STM32F1xx_HAL_Driver/Src/stm32f1xx_hal_flash.c ****     CLEAR_BIT(FLASH->CR, (FLASH_CR_PG | FLASH_CR_PER | FLASH_CR_MER));
 587:Drivers/STM32F1xx_HAL_Driver/Src/stm32f1xx_hal_flash.c **** 
 588:Drivers/STM32F1xx_HAL_Driver/Src/stm32f1xx_hal_flash.c ****     /* Disable End of FLASH Operation and Error source interrupts */
 589:Drivers/STM32F1xx_HAL_Driver/Src/stm32f1xx_hal_flash.c ****     __HAL_FLASH_DISABLE_IT(FLASH_IT_EOP | FLASH_IT_ERR);
 590:Drivers/STM32F1xx_HAL_Driver/Src/stm32f1xx_hal_flash.c **** #endif /* FLASH_BANK2_END */
 591:Drivers/STM32F1xx_HAL_Driver/Src/stm32f1xx_hal_flash.c **** 
 592:Drivers/STM32F1xx_HAL_Driver/Src/stm32f1xx_hal_flash.c ****     /* Process Unlocked */
 593:Drivers/STM32F1xx_HAL_Driver/Src/stm32f1xx_hal_flash.c ****     __HAL_UNLOCK(&pFlash);
 594:Drivers/STM32F1xx_HAL_Driver/Src/stm32f1xx_hal_flash.c ****   }
 595:Drivers/STM32F1xx_HAL_Driver/Src/stm32f1xx_hal_flash.c **** }
 596:Drivers/STM32F1xx_HAL_Driver/Src/stm32f1xx_hal_flash.c **** 
 597:Drivers/STM32F1xx_HAL_Driver/Src/stm32f1xx_hal_flash.c **** /**
 598:Drivers/STM32F1xx_HAL_Driver/Src/stm32f1xx_hal_flash.c ****   * @brief  FLASH end of operation interrupt callback
 599:Drivers/STM32F1xx_HAL_Driver/Src/stm32f1xx_hal_flash.c ****   * @param  ReturnValue: The value saved in this parameter depends on the ongoing procedure
 600:Drivers/STM32F1xx_HAL_Driver/Src/stm32f1xx_hal_flash.c ****   *                 - Mass Erase: No return value expected
 601:Drivers/STM32F1xx_HAL_Driver/Src/stm32f1xx_hal_flash.c ****   *                 - Pages Erase: Address of the page which has been erased 
 602:Drivers/STM32F1xx_HAL_Driver/Src/stm32f1xx_hal_flash.c ****   *                    (if 0xFFFFFFFF, it means that all the selected pages have been erased)
ARM GAS  /tmp/ccj4n996.s 			page 12


 603:Drivers/STM32F1xx_HAL_Driver/Src/stm32f1xx_hal_flash.c ****   *                 - Program: Address which was selected for data program
 604:Drivers/STM32F1xx_HAL_Driver/Src/stm32f1xx_hal_flash.c ****   * @retval none
 605:Drivers/STM32F1xx_HAL_Driver/Src/stm32f1xx_hal_flash.c ****   */
 606:Drivers/STM32F1xx_HAL_Driver/Src/stm32f1xx_hal_flash.c **** __weak void HAL_FLASH_EndOfOperationCallback(uint32_t ReturnValue)
 607:Drivers/STM32F1xx_HAL_Driver/Src/stm32f1xx_hal_flash.c **** {
 608:Drivers/STM32F1xx_HAL_Driver/Src/stm32f1xx_hal_flash.c ****   /* Prevent unused argument(s) compilation warning */
 609:Drivers/STM32F1xx_HAL_Driver/Src/stm32f1xx_hal_flash.c ****   UNUSED(ReturnValue);
 610:Drivers/STM32F1xx_HAL_Driver/Src/stm32f1xx_hal_flash.c **** 
 611:Drivers/STM32F1xx_HAL_Driver/Src/stm32f1xx_hal_flash.c ****   /* NOTE : This function Should not be modified, when the callback is needed,
 612:Drivers/STM32F1xx_HAL_Driver/Src/stm32f1xx_hal_flash.c ****             the HAL_FLASH_EndOfOperationCallback could be implemented in the user file
 613:Drivers/STM32F1xx_HAL_Driver/Src/stm32f1xx_hal_flash.c ****    */ 
 614:Drivers/STM32F1xx_HAL_Driver/Src/stm32f1xx_hal_flash.c **** }
 615:Drivers/STM32F1xx_HAL_Driver/Src/stm32f1xx_hal_flash.c **** 
 616:Drivers/STM32F1xx_HAL_Driver/Src/stm32f1xx_hal_flash.c **** /**
 617:Drivers/STM32F1xx_HAL_Driver/Src/stm32f1xx_hal_flash.c ****   * @brief  FLASH operation error interrupt callback
 618:Drivers/STM32F1xx_HAL_Driver/Src/stm32f1xx_hal_flash.c ****   * @param  ReturnValue: The value saved in this parameter depends on the ongoing procedure
 619:Drivers/STM32F1xx_HAL_Driver/Src/stm32f1xx_hal_flash.c ****   *                 - Mass Erase: No return value expected
 620:Drivers/STM32F1xx_HAL_Driver/Src/stm32f1xx_hal_flash.c ****   *                 - Pages Erase: Address of the page which returned an error
 621:Drivers/STM32F1xx_HAL_Driver/Src/stm32f1xx_hal_flash.c ****   *                 - Program: Address which was selected for data program
 622:Drivers/STM32F1xx_HAL_Driver/Src/stm32f1xx_hal_flash.c ****   * @retval none
 623:Drivers/STM32F1xx_HAL_Driver/Src/stm32f1xx_hal_flash.c ****   */
 624:Drivers/STM32F1xx_HAL_Driver/Src/stm32f1xx_hal_flash.c **** __weak void HAL_FLASH_OperationErrorCallback(uint32_t ReturnValue)
 625:Drivers/STM32F1xx_HAL_Driver/Src/stm32f1xx_hal_flash.c **** {
 626:Drivers/STM32F1xx_HAL_Driver/Src/stm32f1xx_hal_flash.c ****   /* Prevent unused argument(s) compilation warning */
 627:Drivers/STM32F1xx_HAL_Driver/Src/stm32f1xx_hal_flash.c ****   UNUSED(ReturnValue);
 628:Drivers/STM32F1xx_HAL_Driver/Src/stm32f1xx_hal_flash.c **** 
 629:Drivers/STM32F1xx_HAL_Driver/Src/stm32f1xx_hal_flash.c ****   /* NOTE : This function Should not be modified, when the callback is needed,
 630:Drivers/STM32F1xx_HAL_Driver/Src/stm32f1xx_hal_flash.c ****             the HAL_FLASH_OperationErrorCallback could be implemented in the user file
 631:Drivers/STM32F1xx_HAL_Driver/Src/stm32f1xx_hal_flash.c ****    */ 
 632:Drivers/STM32F1xx_HAL_Driver/Src/stm32f1xx_hal_flash.c **** }
 633:Drivers/STM32F1xx_HAL_Driver/Src/stm32f1xx_hal_flash.c **** 
 634:Drivers/STM32F1xx_HAL_Driver/Src/stm32f1xx_hal_flash.c **** /**
 635:Drivers/STM32F1xx_HAL_Driver/Src/stm32f1xx_hal_flash.c ****   * @}
 636:Drivers/STM32F1xx_HAL_Driver/Src/stm32f1xx_hal_flash.c ****   */
 637:Drivers/STM32F1xx_HAL_Driver/Src/stm32f1xx_hal_flash.c **** 
 638:Drivers/STM32F1xx_HAL_Driver/Src/stm32f1xx_hal_flash.c **** /** @defgroup FLASH_Exported_Functions_Group2 Peripheral Control functions 
 639:Drivers/STM32F1xx_HAL_Driver/Src/stm32f1xx_hal_flash.c ****  *  @brief   management functions 
 640:Drivers/STM32F1xx_HAL_Driver/Src/stm32f1xx_hal_flash.c ****  *
 641:Drivers/STM32F1xx_HAL_Driver/Src/stm32f1xx_hal_flash.c **** @verbatim   
 642:Drivers/STM32F1xx_HAL_Driver/Src/stm32f1xx_hal_flash.c ****  ===============================================================================
 643:Drivers/STM32F1xx_HAL_Driver/Src/stm32f1xx_hal_flash.c ****                       ##### Peripheral Control functions #####
 644:Drivers/STM32F1xx_HAL_Driver/Src/stm32f1xx_hal_flash.c ****  ===============================================================================  
 645:Drivers/STM32F1xx_HAL_Driver/Src/stm32f1xx_hal_flash.c ****     [..]
 646:Drivers/STM32F1xx_HAL_Driver/Src/stm32f1xx_hal_flash.c ****     This subsection provides a set of functions allowing to control the FLASH 
 647:Drivers/STM32F1xx_HAL_Driver/Src/stm32f1xx_hal_flash.c ****     memory operations.
 648:Drivers/STM32F1xx_HAL_Driver/Src/stm32f1xx_hal_flash.c **** 
 649:Drivers/STM32F1xx_HAL_Driver/Src/stm32f1xx_hal_flash.c **** @endverbatim
 650:Drivers/STM32F1xx_HAL_Driver/Src/stm32f1xx_hal_flash.c ****   * @{
 651:Drivers/STM32F1xx_HAL_Driver/Src/stm32f1xx_hal_flash.c ****   */
 652:Drivers/STM32F1xx_HAL_Driver/Src/stm32f1xx_hal_flash.c **** 
 653:Drivers/STM32F1xx_HAL_Driver/Src/stm32f1xx_hal_flash.c **** /**
 654:Drivers/STM32F1xx_HAL_Driver/Src/stm32f1xx_hal_flash.c ****   * @brief  Unlock the FLASH control register access
 655:Drivers/STM32F1xx_HAL_Driver/Src/stm32f1xx_hal_flash.c ****   * @retval HAL Status
 656:Drivers/STM32F1xx_HAL_Driver/Src/stm32f1xx_hal_flash.c ****   */
 657:Drivers/STM32F1xx_HAL_Driver/Src/stm32f1xx_hal_flash.c **** HAL_StatusTypeDef HAL_FLASH_Unlock(void)
 658:Drivers/STM32F1xx_HAL_Driver/Src/stm32f1xx_hal_flash.c **** {
 659:Drivers/STM32F1xx_HAL_Driver/Src/stm32f1xx_hal_flash.c ****   HAL_StatusTypeDef status = HAL_OK;
ARM GAS  /tmp/ccj4n996.s 			page 13


 660:Drivers/STM32F1xx_HAL_Driver/Src/stm32f1xx_hal_flash.c **** 
 661:Drivers/STM32F1xx_HAL_Driver/Src/stm32f1xx_hal_flash.c ****   if(READ_BIT(FLASH->CR, FLASH_CR_LOCK) != RESET)
 662:Drivers/STM32F1xx_HAL_Driver/Src/stm32f1xx_hal_flash.c ****   {
 663:Drivers/STM32F1xx_HAL_Driver/Src/stm32f1xx_hal_flash.c ****     /* Authorize the FLASH Registers access */
 664:Drivers/STM32F1xx_HAL_Driver/Src/stm32f1xx_hal_flash.c ****     WRITE_REG(FLASH->KEYR, FLASH_KEY1);
 665:Drivers/STM32F1xx_HAL_Driver/Src/stm32f1xx_hal_flash.c ****     WRITE_REG(FLASH->KEYR, FLASH_KEY2);
 666:Drivers/STM32F1xx_HAL_Driver/Src/stm32f1xx_hal_flash.c **** 
 667:Drivers/STM32F1xx_HAL_Driver/Src/stm32f1xx_hal_flash.c ****     /* Verify Flash is unlocked */
 668:Drivers/STM32F1xx_HAL_Driver/Src/stm32f1xx_hal_flash.c ****     if(READ_BIT(FLASH->CR, FLASH_CR_LOCK) != RESET)
 669:Drivers/STM32F1xx_HAL_Driver/Src/stm32f1xx_hal_flash.c ****     {
 670:Drivers/STM32F1xx_HAL_Driver/Src/stm32f1xx_hal_flash.c ****       status = HAL_ERROR;
 671:Drivers/STM32F1xx_HAL_Driver/Src/stm32f1xx_hal_flash.c ****     }
 672:Drivers/STM32F1xx_HAL_Driver/Src/stm32f1xx_hal_flash.c ****   }
 673:Drivers/STM32F1xx_HAL_Driver/Src/stm32f1xx_hal_flash.c **** #if defined(FLASH_BANK2_END)
 674:Drivers/STM32F1xx_HAL_Driver/Src/stm32f1xx_hal_flash.c ****   if(READ_BIT(FLASH->CR2, FLASH_CR2_LOCK) != RESET)
 675:Drivers/STM32F1xx_HAL_Driver/Src/stm32f1xx_hal_flash.c ****   {
 676:Drivers/STM32F1xx_HAL_Driver/Src/stm32f1xx_hal_flash.c ****     /* Authorize the FLASH BANK2 Registers access */
 677:Drivers/STM32F1xx_HAL_Driver/Src/stm32f1xx_hal_flash.c ****     WRITE_REG(FLASH->KEYR2, FLASH_KEY1);
 678:Drivers/STM32F1xx_HAL_Driver/Src/stm32f1xx_hal_flash.c ****     WRITE_REG(FLASH->KEYR2, FLASH_KEY2);
 679:Drivers/STM32F1xx_HAL_Driver/Src/stm32f1xx_hal_flash.c ****     
 680:Drivers/STM32F1xx_HAL_Driver/Src/stm32f1xx_hal_flash.c ****     /* Verify Flash BANK2 is unlocked */
 681:Drivers/STM32F1xx_HAL_Driver/Src/stm32f1xx_hal_flash.c ****     if(READ_BIT(FLASH->CR2, FLASH_CR2_LOCK) != RESET)
 682:Drivers/STM32F1xx_HAL_Driver/Src/stm32f1xx_hal_flash.c ****     {
 683:Drivers/STM32F1xx_HAL_Driver/Src/stm32f1xx_hal_flash.c ****       status = HAL_ERROR;
 684:Drivers/STM32F1xx_HAL_Driver/Src/stm32f1xx_hal_flash.c ****     }
 685:Drivers/STM32F1xx_HAL_Driver/Src/stm32f1xx_hal_flash.c ****   }
 686:Drivers/STM32F1xx_HAL_Driver/Src/stm32f1xx_hal_flash.c **** #endif /* FLASH_BANK2_END */
 687:Drivers/STM32F1xx_HAL_Driver/Src/stm32f1xx_hal_flash.c **** 
 688:Drivers/STM32F1xx_HAL_Driver/Src/stm32f1xx_hal_flash.c ****   return status;
 689:Drivers/STM32F1xx_HAL_Driver/Src/stm32f1xx_hal_flash.c **** }
 690:Drivers/STM32F1xx_HAL_Driver/Src/stm32f1xx_hal_flash.c **** 
 691:Drivers/STM32F1xx_HAL_Driver/Src/stm32f1xx_hal_flash.c **** /**
 692:Drivers/STM32F1xx_HAL_Driver/Src/stm32f1xx_hal_flash.c ****   * @brief  Locks the FLASH control register access
 693:Drivers/STM32F1xx_HAL_Driver/Src/stm32f1xx_hal_flash.c ****   * @retval HAL Status
 694:Drivers/STM32F1xx_HAL_Driver/Src/stm32f1xx_hal_flash.c ****   */
 695:Drivers/STM32F1xx_HAL_Driver/Src/stm32f1xx_hal_flash.c **** HAL_StatusTypeDef HAL_FLASH_Lock(void)
 696:Drivers/STM32F1xx_HAL_Driver/Src/stm32f1xx_hal_flash.c **** {
 697:Drivers/STM32F1xx_HAL_Driver/Src/stm32f1xx_hal_flash.c ****   /* Set the LOCK Bit to lock the FLASH Registers access */
 698:Drivers/STM32F1xx_HAL_Driver/Src/stm32f1xx_hal_flash.c ****   SET_BIT(FLASH->CR, FLASH_CR_LOCK);
 699:Drivers/STM32F1xx_HAL_Driver/Src/stm32f1xx_hal_flash.c ****   
 700:Drivers/STM32F1xx_HAL_Driver/Src/stm32f1xx_hal_flash.c **** #if defined(FLASH_BANK2_END)
 701:Drivers/STM32F1xx_HAL_Driver/Src/stm32f1xx_hal_flash.c ****   /* Set the LOCK Bit to lock the FLASH BANK2 Registers access */
 702:Drivers/STM32F1xx_HAL_Driver/Src/stm32f1xx_hal_flash.c ****   SET_BIT(FLASH->CR2, FLASH_CR2_LOCK);
 703:Drivers/STM32F1xx_HAL_Driver/Src/stm32f1xx_hal_flash.c **** 
 704:Drivers/STM32F1xx_HAL_Driver/Src/stm32f1xx_hal_flash.c **** #endif /* FLASH_BANK2_END */
 705:Drivers/STM32F1xx_HAL_Driver/Src/stm32f1xx_hal_flash.c ****   return HAL_OK;  
 706:Drivers/STM32F1xx_HAL_Driver/Src/stm32f1xx_hal_flash.c **** }
 707:Drivers/STM32F1xx_HAL_Driver/Src/stm32f1xx_hal_flash.c **** 
 708:Drivers/STM32F1xx_HAL_Driver/Src/stm32f1xx_hal_flash.c **** /**
 709:Drivers/STM32F1xx_HAL_Driver/Src/stm32f1xx_hal_flash.c ****   * @brief  Unlock the FLASH Option Control Registers access.
 710:Drivers/STM32F1xx_HAL_Driver/Src/stm32f1xx_hal_flash.c ****   * @retval HAL Status
 711:Drivers/STM32F1xx_HAL_Driver/Src/stm32f1xx_hal_flash.c ****   */
 712:Drivers/STM32F1xx_HAL_Driver/Src/stm32f1xx_hal_flash.c **** HAL_StatusTypeDef HAL_FLASH_OB_Unlock(void)
 713:Drivers/STM32F1xx_HAL_Driver/Src/stm32f1xx_hal_flash.c **** {
 714:Drivers/STM32F1xx_HAL_Driver/Src/stm32f1xx_hal_flash.c ****   if (HAL_IS_BIT_CLR(FLASH->CR, FLASH_CR_OPTWRE))
 715:Drivers/STM32F1xx_HAL_Driver/Src/stm32f1xx_hal_flash.c ****   {
 716:Drivers/STM32F1xx_HAL_Driver/Src/stm32f1xx_hal_flash.c ****     /* Authorizes the Option Byte register programming */
ARM GAS  /tmp/ccj4n996.s 			page 14


 717:Drivers/STM32F1xx_HAL_Driver/Src/stm32f1xx_hal_flash.c ****     WRITE_REG(FLASH->OPTKEYR, FLASH_OPTKEY1);
 718:Drivers/STM32F1xx_HAL_Driver/Src/stm32f1xx_hal_flash.c ****     WRITE_REG(FLASH->OPTKEYR, FLASH_OPTKEY2);
 719:Drivers/STM32F1xx_HAL_Driver/Src/stm32f1xx_hal_flash.c ****   }
 720:Drivers/STM32F1xx_HAL_Driver/Src/stm32f1xx_hal_flash.c ****   else
 721:Drivers/STM32F1xx_HAL_Driver/Src/stm32f1xx_hal_flash.c ****   {
 722:Drivers/STM32F1xx_HAL_Driver/Src/stm32f1xx_hal_flash.c ****     return HAL_ERROR;
 723:Drivers/STM32F1xx_HAL_Driver/Src/stm32f1xx_hal_flash.c ****   }  
 724:Drivers/STM32F1xx_HAL_Driver/Src/stm32f1xx_hal_flash.c ****   
 725:Drivers/STM32F1xx_HAL_Driver/Src/stm32f1xx_hal_flash.c ****   return HAL_OK;  
 726:Drivers/STM32F1xx_HAL_Driver/Src/stm32f1xx_hal_flash.c **** }
 727:Drivers/STM32F1xx_HAL_Driver/Src/stm32f1xx_hal_flash.c **** 
 728:Drivers/STM32F1xx_HAL_Driver/Src/stm32f1xx_hal_flash.c **** /**
 729:Drivers/STM32F1xx_HAL_Driver/Src/stm32f1xx_hal_flash.c ****   * @brief  Lock the FLASH Option Control Registers access.
 730:Drivers/STM32F1xx_HAL_Driver/Src/stm32f1xx_hal_flash.c ****   * @retval HAL Status 
 731:Drivers/STM32F1xx_HAL_Driver/Src/stm32f1xx_hal_flash.c ****   */
 732:Drivers/STM32F1xx_HAL_Driver/Src/stm32f1xx_hal_flash.c **** HAL_StatusTypeDef HAL_FLASH_OB_Lock(void)
 733:Drivers/STM32F1xx_HAL_Driver/Src/stm32f1xx_hal_flash.c **** {
 734:Drivers/STM32F1xx_HAL_Driver/Src/stm32f1xx_hal_flash.c ****   /* Clear the OPTWRE Bit to lock the FLASH Option Byte Registers access */
 735:Drivers/STM32F1xx_HAL_Driver/Src/stm32f1xx_hal_flash.c ****   CLEAR_BIT(FLASH->CR, FLASH_CR_OPTWRE);
 736:Drivers/STM32F1xx_HAL_Driver/Src/stm32f1xx_hal_flash.c ****   
 737:Drivers/STM32F1xx_HAL_Driver/Src/stm32f1xx_hal_flash.c ****   return HAL_OK;  
 738:Drivers/STM32F1xx_HAL_Driver/Src/stm32f1xx_hal_flash.c **** }
 739:Drivers/STM32F1xx_HAL_Driver/Src/stm32f1xx_hal_flash.c ****   
 740:Drivers/STM32F1xx_HAL_Driver/Src/stm32f1xx_hal_flash.c **** /**
 741:Drivers/STM32F1xx_HAL_Driver/Src/stm32f1xx_hal_flash.c ****   * @brief  Launch the option byte loading.
 742:Drivers/STM32F1xx_HAL_Driver/Src/stm32f1xx_hal_flash.c ****   * @note   This function will reset automatically the MCU.
 743:Drivers/STM32F1xx_HAL_Driver/Src/stm32f1xx_hal_flash.c ****   * @retval None
 744:Drivers/STM32F1xx_HAL_Driver/Src/stm32f1xx_hal_flash.c ****   */
 745:Drivers/STM32F1xx_HAL_Driver/Src/stm32f1xx_hal_flash.c **** void HAL_FLASH_OB_Launch(void)
 746:Drivers/STM32F1xx_HAL_Driver/Src/stm32f1xx_hal_flash.c **** {
 747:Drivers/STM32F1xx_HAL_Driver/Src/stm32f1xx_hal_flash.c ****   /* Initiates a system reset request to launch the option byte loading */
 748:Drivers/STM32F1xx_HAL_Driver/Src/stm32f1xx_hal_flash.c ****   HAL_NVIC_SystemReset();
 749:Drivers/STM32F1xx_HAL_Driver/Src/stm32f1xx_hal_flash.c **** }
 750:Drivers/STM32F1xx_HAL_Driver/Src/stm32f1xx_hal_flash.c **** 
 751:Drivers/STM32F1xx_HAL_Driver/Src/stm32f1xx_hal_flash.c **** /**
 752:Drivers/STM32F1xx_HAL_Driver/Src/stm32f1xx_hal_flash.c ****   * @}
 753:Drivers/STM32F1xx_HAL_Driver/Src/stm32f1xx_hal_flash.c ****   */  
 754:Drivers/STM32F1xx_HAL_Driver/Src/stm32f1xx_hal_flash.c **** 
 755:Drivers/STM32F1xx_HAL_Driver/Src/stm32f1xx_hal_flash.c **** /** @defgroup FLASH_Exported_Functions_Group3 Peripheral errors functions 
 756:Drivers/STM32F1xx_HAL_Driver/Src/stm32f1xx_hal_flash.c ****  *  @brief    Peripheral errors functions 
 757:Drivers/STM32F1xx_HAL_Driver/Src/stm32f1xx_hal_flash.c ****  *
 758:Drivers/STM32F1xx_HAL_Driver/Src/stm32f1xx_hal_flash.c **** @verbatim   
 759:Drivers/STM32F1xx_HAL_Driver/Src/stm32f1xx_hal_flash.c ****  ===============================================================================
 760:Drivers/STM32F1xx_HAL_Driver/Src/stm32f1xx_hal_flash.c ****                       ##### Peripheral Errors functions #####
 761:Drivers/STM32F1xx_HAL_Driver/Src/stm32f1xx_hal_flash.c ****  ===============================================================================  
 762:Drivers/STM32F1xx_HAL_Driver/Src/stm32f1xx_hal_flash.c ****     [..]
 763:Drivers/STM32F1xx_HAL_Driver/Src/stm32f1xx_hal_flash.c ****     This subsection permit to get in run-time errors of  the FLASH peripheral.
 764:Drivers/STM32F1xx_HAL_Driver/Src/stm32f1xx_hal_flash.c **** 
 765:Drivers/STM32F1xx_HAL_Driver/Src/stm32f1xx_hal_flash.c **** @endverbatim
 766:Drivers/STM32F1xx_HAL_Driver/Src/stm32f1xx_hal_flash.c ****   * @{
 767:Drivers/STM32F1xx_HAL_Driver/Src/stm32f1xx_hal_flash.c ****   */
 768:Drivers/STM32F1xx_HAL_Driver/Src/stm32f1xx_hal_flash.c **** 
 769:Drivers/STM32F1xx_HAL_Driver/Src/stm32f1xx_hal_flash.c **** /**
 770:Drivers/STM32F1xx_HAL_Driver/Src/stm32f1xx_hal_flash.c ****   * @brief  Get the specific FLASH error flag.
 771:Drivers/STM32F1xx_HAL_Driver/Src/stm32f1xx_hal_flash.c ****   * @retval FLASH_ErrorCode The returned value can be:
 772:Drivers/STM32F1xx_HAL_Driver/Src/stm32f1xx_hal_flash.c ****   *            @ref FLASH_Error_Codes
 773:Drivers/STM32F1xx_HAL_Driver/Src/stm32f1xx_hal_flash.c ****   */
ARM GAS  /tmp/ccj4n996.s 			page 15


 774:Drivers/STM32F1xx_HAL_Driver/Src/stm32f1xx_hal_flash.c **** uint32_t HAL_FLASH_GetError(void)
 775:Drivers/STM32F1xx_HAL_Driver/Src/stm32f1xx_hal_flash.c **** {
 776:Drivers/STM32F1xx_HAL_Driver/Src/stm32f1xx_hal_flash.c ****    return pFlash.ErrorCode;
 777:Drivers/STM32F1xx_HAL_Driver/Src/stm32f1xx_hal_flash.c **** }
 778:Drivers/STM32F1xx_HAL_Driver/Src/stm32f1xx_hal_flash.c **** 
 779:Drivers/STM32F1xx_HAL_Driver/Src/stm32f1xx_hal_flash.c **** /**
 780:Drivers/STM32F1xx_HAL_Driver/Src/stm32f1xx_hal_flash.c ****   * @}
 781:Drivers/STM32F1xx_HAL_Driver/Src/stm32f1xx_hal_flash.c ****   */
 782:Drivers/STM32F1xx_HAL_Driver/Src/stm32f1xx_hal_flash.c **** 
 783:Drivers/STM32F1xx_HAL_Driver/Src/stm32f1xx_hal_flash.c **** /**
 784:Drivers/STM32F1xx_HAL_Driver/Src/stm32f1xx_hal_flash.c ****   * @}
 785:Drivers/STM32F1xx_HAL_Driver/Src/stm32f1xx_hal_flash.c ****   */
 786:Drivers/STM32F1xx_HAL_Driver/Src/stm32f1xx_hal_flash.c **** 
 787:Drivers/STM32F1xx_HAL_Driver/Src/stm32f1xx_hal_flash.c **** /** @addtogroup FLASH_Private_Functions
 788:Drivers/STM32F1xx_HAL_Driver/Src/stm32f1xx_hal_flash.c ****  * @{
 789:Drivers/STM32F1xx_HAL_Driver/Src/stm32f1xx_hal_flash.c ****  */
 790:Drivers/STM32F1xx_HAL_Driver/Src/stm32f1xx_hal_flash.c **** 
 791:Drivers/STM32F1xx_HAL_Driver/Src/stm32f1xx_hal_flash.c **** /**
 792:Drivers/STM32F1xx_HAL_Driver/Src/stm32f1xx_hal_flash.c ****   * @brief  Program a half-word (16-bit) at a specified address.
 793:Drivers/STM32F1xx_HAL_Driver/Src/stm32f1xx_hal_flash.c ****   * @param  Address specify the address to be programmed.
 794:Drivers/STM32F1xx_HAL_Driver/Src/stm32f1xx_hal_flash.c ****   * @param  Data    specify the data to be programmed.
 795:Drivers/STM32F1xx_HAL_Driver/Src/stm32f1xx_hal_flash.c ****   * @retval None
 796:Drivers/STM32F1xx_HAL_Driver/Src/stm32f1xx_hal_flash.c ****   */
 797:Drivers/STM32F1xx_HAL_Driver/Src/stm32f1xx_hal_flash.c **** static void FLASH_Program_HalfWord(uint32_t Address, uint16_t Data)
 798:Drivers/STM32F1xx_HAL_Driver/Src/stm32f1xx_hal_flash.c **** {
  27              		.loc 1 798 1 view -0
  28              		.cfi_startproc
  29              		@ args = 0, pretend = 0, frame = 0
  30              		@ frame_needed = 0, uses_anonymous_args = 0
  31              		@ link register save eliminated.
 799:Drivers/STM32F1xx_HAL_Driver/Src/stm32f1xx_hal_flash.c ****   /* Clean the error context */
 800:Drivers/STM32F1xx_HAL_Driver/Src/stm32f1xx_hal_flash.c ****   pFlash.ErrorCode = HAL_FLASH_ERROR_NONE;
  32              		.loc 1 800 3 view .LVU1
  33              		.loc 1 800 20 is_stmt 0 view .LVU2
  34 0000 044B     		ldr	r3, .L2
  35 0002 0022     		movs	r2, #0
  36 0004 DA61     		str	r2, [r3, #28]
 801:Drivers/STM32F1xx_HAL_Driver/Src/stm32f1xx_hal_flash.c ****   
 802:Drivers/STM32F1xx_HAL_Driver/Src/stm32f1xx_hal_flash.c **** #if defined(FLASH_BANK2_END)
 803:Drivers/STM32F1xx_HAL_Driver/Src/stm32f1xx_hal_flash.c ****   if(Address <= FLASH_BANK1_END)
 804:Drivers/STM32F1xx_HAL_Driver/Src/stm32f1xx_hal_flash.c ****   {
 805:Drivers/STM32F1xx_HAL_Driver/Src/stm32f1xx_hal_flash.c **** #endif /* FLASH_BANK2_END */
 806:Drivers/STM32F1xx_HAL_Driver/Src/stm32f1xx_hal_flash.c ****     /* Proceed to program the new data */
 807:Drivers/STM32F1xx_HAL_Driver/Src/stm32f1xx_hal_flash.c ****     SET_BIT(FLASH->CR, FLASH_CR_PG);
  37              		.loc 1 807 5 is_stmt 1 view .LVU3
  38 0006 044A     		ldr	r2, .L2+4
  39 0008 1369     		ldr	r3, [r2, #16]
  40 000a 43F00103 		orr	r3, r3, #1
  41 000e 1361     		str	r3, [r2, #16]
 808:Drivers/STM32F1xx_HAL_Driver/Src/stm32f1xx_hal_flash.c **** #if defined(FLASH_BANK2_END)
 809:Drivers/STM32F1xx_HAL_Driver/Src/stm32f1xx_hal_flash.c ****   }
 810:Drivers/STM32F1xx_HAL_Driver/Src/stm32f1xx_hal_flash.c ****   else
 811:Drivers/STM32F1xx_HAL_Driver/Src/stm32f1xx_hal_flash.c ****   {
 812:Drivers/STM32F1xx_HAL_Driver/Src/stm32f1xx_hal_flash.c ****     /* Proceed to program the new data */
 813:Drivers/STM32F1xx_HAL_Driver/Src/stm32f1xx_hal_flash.c ****     SET_BIT(FLASH->CR2, FLASH_CR2_PG);
 814:Drivers/STM32F1xx_HAL_Driver/Src/stm32f1xx_hal_flash.c ****   }
 815:Drivers/STM32F1xx_HAL_Driver/Src/stm32f1xx_hal_flash.c **** #endif /* FLASH_BANK2_END */
ARM GAS  /tmp/ccj4n996.s 			page 16


 816:Drivers/STM32F1xx_HAL_Driver/Src/stm32f1xx_hal_flash.c **** 
 817:Drivers/STM32F1xx_HAL_Driver/Src/stm32f1xx_hal_flash.c ****   /* Write data in the address */
 818:Drivers/STM32F1xx_HAL_Driver/Src/stm32f1xx_hal_flash.c ****   *(__IO uint16_t*)Address = Data;
  42              		.loc 1 818 3 view .LVU4
  43              		.loc 1 818 28 is_stmt 0 view .LVU5
  44 0010 0180     		strh	r1, [r0]	@ movhi
 819:Drivers/STM32F1xx_HAL_Driver/Src/stm32f1xx_hal_flash.c **** }
  45              		.loc 1 819 1 view .LVU6
  46 0012 7047     		bx	lr
  47              	.L3:
  48              		.align	2
  49              	.L2:
  50 0014 00000000 		.word	pFlash
  51 0018 00200240 		.word	1073881088
  52              		.cfi_endproc
  53              	.LFE76:
  55              		.section	.text.FLASH_SetErrorCode,"ax",%progbits
  56              		.align	1
  57              		.syntax unified
  58              		.thumb
  59              		.thumb_func
  61              	FLASH_SetErrorCode:
  62              	.LFB78:
 820:Drivers/STM32F1xx_HAL_Driver/Src/stm32f1xx_hal_flash.c **** 
 821:Drivers/STM32F1xx_HAL_Driver/Src/stm32f1xx_hal_flash.c **** /**
 822:Drivers/STM32F1xx_HAL_Driver/Src/stm32f1xx_hal_flash.c ****   * @brief  Wait for a FLASH operation to complete.
 823:Drivers/STM32F1xx_HAL_Driver/Src/stm32f1xx_hal_flash.c ****   * @param  Timeout  maximum flash operation timeout
 824:Drivers/STM32F1xx_HAL_Driver/Src/stm32f1xx_hal_flash.c ****   * @retval HAL Status
 825:Drivers/STM32F1xx_HAL_Driver/Src/stm32f1xx_hal_flash.c ****   */
 826:Drivers/STM32F1xx_HAL_Driver/Src/stm32f1xx_hal_flash.c **** HAL_StatusTypeDef FLASH_WaitForLastOperation(uint32_t Timeout)
 827:Drivers/STM32F1xx_HAL_Driver/Src/stm32f1xx_hal_flash.c **** {
 828:Drivers/STM32F1xx_HAL_Driver/Src/stm32f1xx_hal_flash.c ****   /* Wait for the FLASH operation to complete by polling on BUSY flag to be reset.
 829:Drivers/STM32F1xx_HAL_Driver/Src/stm32f1xx_hal_flash.c ****      Even if the FLASH operation fails, the BUSY flag will be reset and an error
 830:Drivers/STM32F1xx_HAL_Driver/Src/stm32f1xx_hal_flash.c ****      flag will be set */
 831:Drivers/STM32F1xx_HAL_Driver/Src/stm32f1xx_hal_flash.c ****      
 832:Drivers/STM32F1xx_HAL_Driver/Src/stm32f1xx_hal_flash.c ****   uint32_t tickstart = HAL_GetTick();
 833:Drivers/STM32F1xx_HAL_Driver/Src/stm32f1xx_hal_flash.c ****      
 834:Drivers/STM32F1xx_HAL_Driver/Src/stm32f1xx_hal_flash.c ****   while(__HAL_FLASH_GET_FLAG(FLASH_FLAG_BSY)) 
 835:Drivers/STM32F1xx_HAL_Driver/Src/stm32f1xx_hal_flash.c ****   { 
 836:Drivers/STM32F1xx_HAL_Driver/Src/stm32f1xx_hal_flash.c ****     if (Timeout != HAL_MAX_DELAY)
 837:Drivers/STM32F1xx_HAL_Driver/Src/stm32f1xx_hal_flash.c ****     {
 838:Drivers/STM32F1xx_HAL_Driver/Src/stm32f1xx_hal_flash.c ****       if((Timeout == 0U) || ((HAL_GetTick()-tickstart) > Timeout))
 839:Drivers/STM32F1xx_HAL_Driver/Src/stm32f1xx_hal_flash.c ****       {
 840:Drivers/STM32F1xx_HAL_Driver/Src/stm32f1xx_hal_flash.c ****         return HAL_TIMEOUT;
 841:Drivers/STM32F1xx_HAL_Driver/Src/stm32f1xx_hal_flash.c ****       }
 842:Drivers/STM32F1xx_HAL_Driver/Src/stm32f1xx_hal_flash.c ****     }
 843:Drivers/STM32F1xx_HAL_Driver/Src/stm32f1xx_hal_flash.c ****   }
 844:Drivers/STM32F1xx_HAL_Driver/Src/stm32f1xx_hal_flash.c ****   
 845:Drivers/STM32F1xx_HAL_Driver/Src/stm32f1xx_hal_flash.c ****   /* Check FLASH End of Operation flag  */
 846:Drivers/STM32F1xx_HAL_Driver/Src/stm32f1xx_hal_flash.c ****   if (__HAL_FLASH_GET_FLAG(FLASH_FLAG_EOP))
 847:Drivers/STM32F1xx_HAL_Driver/Src/stm32f1xx_hal_flash.c ****   {
 848:Drivers/STM32F1xx_HAL_Driver/Src/stm32f1xx_hal_flash.c ****     /* Clear FLASH End of Operation pending bit */
 849:Drivers/STM32F1xx_HAL_Driver/Src/stm32f1xx_hal_flash.c ****     __HAL_FLASH_CLEAR_FLAG(FLASH_FLAG_EOP);
 850:Drivers/STM32F1xx_HAL_Driver/Src/stm32f1xx_hal_flash.c ****   }
 851:Drivers/STM32F1xx_HAL_Driver/Src/stm32f1xx_hal_flash.c ****   
 852:Drivers/STM32F1xx_HAL_Driver/Src/stm32f1xx_hal_flash.c ****   if(__HAL_FLASH_GET_FLAG(FLASH_FLAG_WRPERR)  || 
 853:Drivers/STM32F1xx_HAL_Driver/Src/stm32f1xx_hal_flash.c ****      __HAL_FLASH_GET_FLAG(FLASH_FLAG_OPTVERR) || 
ARM GAS  /tmp/ccj4n996.s 			page 17


 854:Drivers/STM32F1xx_HAL_Driver/Src/stm32f1xx_hal_flash.c ****      __HAL_FLASH_GET_FLAG(FLASH_FLAG_PGERR))
 855:Drivers/STM32F1xx_HAL_Driver/Src/stm32f1xx_hal_flash.c ****   {
 856:Drivers/STM32F1xx_HAL_Driver/Src/stm32f1xx_hal_flash.c ****     /*Save the error code*/
 857:Drivers/STM32F1xx_HAL_Driver/Src/stm32f1xx_hal_flash.c ****     FLASH_SetErrorCode();
 858:Drivers/STM32F1xx_HAL_Driver/Src/stm32f1xx_hal_flash.c ****     return HAL_ERROR;
 859:Drivers/STM32F1xx_HAL_Driver/Src/stm32f1xx_hal_flash.c ****   }
 860:Drivers/STM32F1xx_HAL_Driver/Src/stm32f1xx_hal_flash.c **** 
 861:Drivers/STM32F1xx_HAL_Driver/Src/stm32f1xx_hal_flash.c ****   /* There is no error flag set */
 862:Drivers/STM32F1xx_HAL_Driver/Src/stm32f1xx_hal_flash.c ****   return HAL_OK;
 863:Drivers/STM32F1xx_HAL_Driver/Src/stm32f1xx_hal_flash.c **** }
 864:Drivers/STM32F1xx_HAL_Driver/Src/stm32f1xx_hal_flash.c **** 
 865:Drivers/STM32F1xx_HAL_Driver/Src/stm32f1xx_hal_flash.c **** #if defined(FLASH_BANK2_END)
 866:Drivers/STM32F1xx_HAL_Driver/Src/stm32f1xx_hal_flash.c **** /**
 867:Drivers/STM32F1xx_HAL_Driver/Src/stm32f1xx_hal_flash.c ****   * @brief  Wait for a FLASH BANK2 operation to complete.
 868:Drivers/STM32F1xx_HAL_Driver/Src/stm32f1xx_hal_flash.c ****   * @param  Timeout maximum flash operation timeout
 869:Drivers/STM32F1xx_HAL_Driver/Src/stm32f1xx_hal_flash.c ****   * @retval HAL_StatusTypeDef HAL Status
 870:Drivers/STM32F1xx_HAL_Driver/Src/stm32f1xx_hal_flash.c ****   */
 871:Drivers/STM32F1xx_HAL_Driver/Src/stm32f1xx_hal_flash.c **** HAL_StatusTypeDef FLASH_WaitForLastOperationBank2(uint32_t Timeout)
 872:Drivers/STM32F1xx_HAL_Driver/Src/stm32f1xx_hal_flash.c **** { 
 873:Drivers/STM32F1xx_HAL_Driver/Src/stm32f1xx_hal_flash.c ****   /* Wait for the FLASH BANK2 operation to complete by polling on BUSY flag to be reset.
 874:Drivers/STM32F1xx_HAL_Driver/Src/stm32f1xx_hal_flash.c ****      Even if the FLASH BANK2 operation fails, the BUSY flag will be reset and an error
 875:Drivers/STM32F1xx_HAL_Driver/Src/stm32f1xx_hal_flash.c ****      flag will be set */
 876:Drivers/STM32F1xx_HAL_Driver/Src/stm32f1xx_hal_flash.c ****      
 877:Drivers/STM32F1xx_HAL_Driver/Src/stm32f1xx_hal_flash.c ****   uint32_t tickstart = HAL_GetTick();
 878:Drivers/STM32F1xx_HAL_Driver/Src/stm32f1xx_hal_flash.c ****      
 879:Drivers/STM32F1xx_HAL_Driver/Src/stm32f1xx_hal_flash.c ****   while(__HAL_FLASH_GET_FLAG(FLASH_FLAG_BSY_BANK2)) 
 880:Drivers/STM32F1xx_HAL_Driver/Src/stm32f1xx_hal_flash.c ****   { 
 881:Drivers/STM32F1xx_HAL_Driver/Src/stm32f1xx_hal_flash.c ****     if (Timeout != HAL_MAX_DELAY)
 882:Drivers/STM32F1xx_HAL_Driver/Src/stm32f1xx_hal_flash.c ****     {
 883:Drivers/STM32F1xx_HAL_Driver/Src/stm32f1xx_hal_flash.c ****       if((Timeout == 0U) || ((HAL_GetTick()-tickstart) > Timeout))
 884:Drivers/STM32F1xx_HAL_Driver/Src/stm32f1xx_hal_flash.c ****       {
 885:Drivers/STM32F1xx_HAL_Driver/Src/stm32f1xx_hal_flash.c ****         return HAL_TIMEOUT;
 886:Drivers/STM32F1xx_HAL_Driver/Src/stm32f1xx_hal_flash.c ****       }
 887:Drivers/STM32F1xx_HAL_Driver/Src/stm32f1xx_hal_flash.c ****     }
 888:Drivers/STM32F1xx_HAL_Driver/Src/stm32f1xx_hal_flash.c ****   }
 889:Drivers/STM32F1xx_HAL_Driver/Src/stm32f1xx_hal_flash.c ****   
 890:Drivers/STM32F1xx_HAL_Driver/Src/stm32f1xx_hal_flash.c ****   /* Check FLASH End of Operation flag  */
 891:Drivers/STM32F1xx_HAL_Driver/Src/stm32f1xx_hal_flash.c ****   if (__HAL_FLASH_GET_FLAG(FLASH_FLAG_EOP_BANK2))
 892:Drivers/STM32F1xx_HAL_Driver/Src/stm32f1xx_hal_flash.c ****   {
 893:Drivers/STM32F1xx_HAL_Driver/Src/stm32f1xx_hal_flash.c ****     /* Clear FLASH End of Operation pending bit */
 894:Drivers/STM32F1xx_HAL_Driver/Src/stm32f1xx_hal_flash.c ****     __HAL_FLASH_CLEAR_FLAG(FLASH_FLAG_EOP_BANK2);
 895:Drivers/STM32F1xx_HAL_Driver/Src/stm32f1xx_hal_flash.c ****   }
 896:Drivers/STM32F1xx_HAL_Driver/Src/stm32f1xx_hal_flash.c **** 
 897:Drivers/STM32F1xx_HAL_Driver/Src/stm32f1xx_hal_flash.c ****   if(__HAL_FLASH_GET_FLAG(FLASH_FLAG_WRPERR_BANK2) || __HAL_FLASH_GET_FLAG(FLASH_FLAG_PGERR_BANK2))
 898:Drivers/STM32F1xx_HAL_Driver/Src/stm32f1xx_hal_flash.c ****   {
 899:Drivers/STM32F1xx_HAL_Driver/Src/stm32f1xx_hal_flash.c ****     /*Save the error code*/
 900:Drivers/STM32F1xx_HAL_Driver/Src/stm32f1xx_hal_flash.c ****     FLASH_SetErrorCode();
 901:Drivers/STM32F1xx_HAL_Driver/Src/stm32f1xx_hal_flash.c ****     return HAL_ERROR;
 902:Drivers/STM32F1xx_HAL_Driver/Src/stm32f1xx_hal_flash.c ****   }
 903:Drivers/STM32F1xx_HAL_Driver/Src/stm32f1xx_hal_flash.c **** 
 904:Drivers/STM32F1xx_HAL_Driver/Src/stm32f1xx_hal_flash.c ****   /* If there is an error flag set */
 905:Drivers/STM32F1xx_HAL_Driver/Src/stm32f1xx_hal_flash.c ****   return HAL_OK;
 906:Drivers/STM32F1xx_HAL_Driver/Src/stm32f1xx_hal_flash.c ****   
 907:Drivers/STM32F1xx_HAL_Driver/Src/stm32f1xx_hal_flash.c **** }
 908:Drivers/STM32F1xx_HAL_Driver/Src/stm32f1xx_hal_flash.c **** #endif /* FLASH_BANK2_END */
 909:Drivers/STM32F1xx_HAL_Driver/Src/stm32f1xx_hal_flash.c **** 
 910:Drivers/STM32F1xx_HAL_Driver/Src/stm32f1xx_hal_flash.c **** /**
ARM GAS  /tmp/ccj4n996.s 			page 18


 911:Drivers/STM32F1xx_HAL_Driver/Src/stm32f1xx_hal_flash.c ****   * @brief  Set the specific FLASH error flag.
 912:Drivers/STM32F1xx_HAL_Driver/Src/stm32f1xx_hal_flash.c ****   * @retval None
 913:Drivers/STM32F1xx_HAL_Driver/Src/stm32f1xx_hal_flash.c ****   */
 914:Drivers/STM32F1xx_HAL_Driver/Src/stm32f1xx_hal_flash.c **** static void FLASH_SetErrorCode(void)
 915:Drivers/STM32F1xx_HAL_Driver/Src/stm32f1xx_hal_flash.c **** {
  63              		.loc 1 915 1 is_stmt 1 view -0
  64              		.cfi_startproc
  65              		@ args = 0, pretend = 0, frame = 0
  66              		@ frame_needed = 0, uses_anonymous_args = 0
  67              		@ link register save eliminated.
 916:Drivers/STM32F1xx_HAL_Driver/Src/stm32f1xx_hal_flash.c ****   uint32_t flags = 0U;
  68              		.loc 1 916 3 view .LVU8
  69              	.LVL1:
 917:Drivers/STM32F1xx_HAL_Driver/Src/stm32f1xx_hal_flash.c ****   
 918:Drivers/STM32F1xx_HAL_Driver/Src/stm32f1xx_hal_flash.c **** #if defined(FLASH_BANK2_END)
 919:Drivers/STM32F1xx_HAL_Driver/Src/stm32f1xx_hal_flash.c ****   if(__HAL_FLASH_GET_FLAG(FLASH_FLAG_WRPERR) || __HAL_FLASH_GET_FLAG(FLASH_FLAG_WRPERR_BANK2))
 920:Drivers/STM32F1xx_HAL_Driver/Src/stm32f1xx_hal_flash.c **** #else
 921:Drivers/STM32F1xx_HAL_Driver/Src/stm32f1xx_hal_flash.c ****   if(__HAL_FLASH_GET_FLAG(FLASH_FLAG_WRPERR))
  70              		.loc 1 921 3 view .LVU9
  71              		.loc 1 921 6 is_stmt 0 view .LVU10
  72 0000 184B     		ldr	r3, .L10
  73 0002 DB68     		ldr	r3, [r3, #12]
  74              		.loc 1 921 5 view .LVU11
  75 0004 13F01003 		ands	r3, r3, #16
  76 0008 05D0     		beq	.L5
 922:Drivers/STM32F1xx_HAL_Driver/Src/stm32f1xx_hal_flash.c **** #endif /* FLASH_BANK2_END */
 923:Drivers/STM32F1xx_HAL_Driver/Src/stm32f1xx_hal_flash.c ****   {
 924:Drivers/STM32F1xx_HAL_Driver/Src/stm32f1xx_hal_flash.c ****     pFlash.ErrorCode |= HAL_FLASH_ERROR_WRP;
  77              		.loc 1 924 5 is_stmt 1 view .LVU12
  78              		.loc 1 924 11 is_stmt 0 view .LVU13
  79 000a 174A     		ldr	r2, .L10+4
  80 000c D369     		ldr	r3, [r2, #28]
  81              		.loc 1 924 22 view .LVU14
  82 000e 43F00203 		orr	r3, r3, #2
  83 0012 D361     		str	r3, [r2, #28]
 925:Drivers/STM32F1xx_HAL_Driver/Src/stm32f1xx_hal_flash.c **** #if defined(FLASH_BANK2_END)
 926:Drivers/STM32F1xx_HAL_Driver/Src/stm32f1xx_hal_flash.c ****     flags |= FLASH_FLAG_WRPERR | FLASH_FLAG_WRPERR_BANK2;
 927:Drivers/STM32F1xx_HAL_Driver/Src/stm32f1xx_hal_flash.c **** #else
 928:Drivers/STM32F1xx_HAL_Driver/Src/stm32f1xx_hal_flash.c ****     flags |= FLASH_FLAG_WRPERR;
  84              		.loc 1 928 5 is_stmt 1 view .LVU15
  85              	.LVL2:
  86              		.loc 1 928 11 is_stmt 0 view .LVU16
  87 0014 1023     		movs	r3, #16
  88              	.LVL3:
  89              	.L5:
 929:Drivers/STM32F1xx_HAL_Driver/Src/stm32f1xx_hal_flash.c **** #endif /* FLASH_BANK2_END */
 930:Drivers/STM32F1xx_HAL_Driver/Src/stm32f1xx_hal_flash.c ****   }
 931:Drivers/STM32F1xx_HAL_Driver/Src/stm32f1xx_hal_flash.c **** #if defined(FLASH_BANK2_END)
 932:Drivers/STM32F1xx_HAL_Driver/Src/stm32f1xx_hal_flash.c ****   if(__HAL_FLASH_GET_FLAG(FLASH_FLAG_PGERR) || __HAL_FLASH_GET_FLAG(FLASH_FLAG_PGERR_BANK2))
 933:Drivers/STM32F1xx_HAL_Driver/Src/stm32f1xx_hal_flash.c **** #else
 934:Drivers/STM32F1xx_HAL_Driver/Src/stm32f1xx_hal_flash.c ****   if(__HAL_FLASH_GET_FLAG(FLASH_FLAG_PGERR))
  90              		.loc 1 934 3 is_stmt 1 view .LVU17
  91              		.loc 1 934 6 is_stmt 0 view .LVU18
  92 0016 134A     		ldr	r2, .L10
  93 0018 D268     		ldr	r2, [r2, #12]
  94              		.loc 1 934 5 view .LVU19
  95 001a 12F0040F 		tst	r2, #4
ARM GAS  /tmp/ccj4n996.s 			page 19


  96 001e 06D0     		beq	.L6
 935:Drivers/STM32F1xx_HAL_Driver/Src/stm32f1xx_hal_flash.c **** #endif /* FLASH_BANK2_END */
 936:Drivers/STM32F1xx_HAL_Driver/Src/stm32f1xx_hal_flash.c ****   {
 937:Drivers/STM32F1xx_HAL_Driver/Src/stm32f1xx_hal_flash.c ****     pFlash.ErrorCode |= HAL_FLASH_ERROR_PROG;
  97              		.loc 1 937 5 is_stmt 1 view .LVU20
  98              		.loc 1 937 11 is_stmt 0 view .LVU21
  99 0020 1149     		ldr	r1, .L10+4
 100 0022 CA69     		ldr	r2, [r1, #28]
 101              		.loc 1 937 22 view .LVU22
 102 0024 42F00102 		orr	r2, r2, #1
 103 0028 CA61     		str	r2, [r1, #28]
 938:Drivers/STM32F1xx_HAL_Driver/Src/stm32f1xx_hal_flash.c **** #if defined(FLASH_BANK2_END)
 939:Drivers/STM32F1xx_HAL_Driver/Src/stm32f1xx_hal_flash.c ****     flags |= FLASH_FLAG_PGERR | FLASH_FLAG_PGERR_BANK2;
 940:Drivers/STM32F1xx_HAL_Driver/Src/stm32f1xx_hal_flash.c **** #else
 941:Drivers/STM32F1xx_HAL_Driver/Src/stm32f1xx_hal_flash.c ****     flags |= FLASH_FLAG_PGERR;
 104              		.loc 1 941 5 is_stmt 1 view .LVU23
 105              		.loc 1 941 11 is_stmt 0 view .LVU24
 106 002a 43F00403 		orr	r3, r3, #4
 107              	.LVL4:
 108              	.L6:
 942:Drivers/STM32F1xx_HAL_Driver/Src/stm32f1xx_hal_flash.c **** #endif /* FLASH_BANK2_END */
 943:Drivers/STM32F1xx_HAL_Driver/Src/stm32f1xx_hal_flash.c ****   }
 944:Drivers/STM32F1xx_HAL_Driver/Src/stm32f1xx_hal_flash.c ****   if(__HAL_FLASH_GET_FLAG(FLASH_FLAG_OPTVERR))
 109              		.loc 1 944 3 is_stmt 1 view .LVU25
 110              		.loc 1 944 6 is_stmt 0 view .LVU26
 111 002e 0D4A     		ldr	r2, .L10
 112 0030 D269     		ldr	r2, [r2, #28]
 113              		.loc 1 944 5 view .LVU27
 114 0032 12F0010F 		tst	r2, #1
 115 0036 0DD0     		beq	.L7
 945:Drivers/STM32F1xx_HAL_Driver/Src/stm32f1xx_hal_flash.c ****   {
 946:Drivers/STM32F1xx_HAL_Driver/Src/stm32f1xx_hal_flash.c ****     pFlash.ErrorCode |= HAL_FLASH_ERROR_OPTV;
 116              		.loc 1 946 5 is_stmt 1 view .LVU28
 117              		.loc 1 946 11 is_stmt 0 view .LVU29
 118 0038 0B49     		ldr	r1, .L10+4
 119 003a CA69     		ldr	r2, [r1, #28]
 120              		.loc 1 946 22 view .LVU30
 121 003c 42F00402 		orr	r2, r2, #4
 122 0040 CA61     		str	r2, [r1, #28]
 947:Drivers/STM32F1xx_HAL_Driver/Src/stm32f1xx_hal_flash.c ****   __HAL_FLASH_CLEAR_FLAG(FLASH_FLAG_OPTVERR);
 123              		.loc 1 947 3 is_stmt 1 view .LVU31
 124              		.loc 1 947 3 view .LVU32
 125              		.loc 1 947 3 discriminator 1 view .LVU33
 126 0042 0849     		ldr	r1, .L10
 127 0044 CA69     		ldr	r2, [r1, #28]
 128 0046 22F00102 		bic	r2, r2, #1
 129 004a CA61     		str	r2, [r1, #28]
 130              		.loc 1 947 3 view .LVU34
 948:Drivers/STM32F1xx_HAL_Driver/Src/stm32f1xx_hal_flash.c ****   }
 949:Drivers/STM32F1xx_HAL_Driver/Src/stm32f1xx_hal_flash.c **** 
 950:Drivers/STM32F1xx_HAL_Driver/Src/stm32f1xx_hal_flash.c ****   /* Clear FLASH error pending bits */
 951:Drivers/STM32F1xx_HAL_Driver/Src/stm32f1xx_hal_flash.c ****   __HAL_FLASH_CLEAR_FLAG(flags);
 131              		.loc 1 951 3 view .LVU35
 132              		.loc 1 951 3 view .LVU36
 133 004c 40F20112 		movw	r2, #257
 134 0050 9342     		cmp	r3, r2
 135 0052 02D0     		beq	.L9
ARM GAS  /tmp/ccj4n996.s 			page 20


 136              	.L7:
 137              		.loc 1 951 3 discriminator 2 view .LVU37
 138 0054 034A     		ldr	r2, .L10
 139 0056 D360     		str	r3, [r2, #12]
 140              		.loc 1 951 3 view .LVU38
 952:Drivers/STM32F1xx_HAL_Driver/Src/stm32f1xx_hal_flash.c **** }  
 141              		.loc 1 952 1 is_stmt 0 view .LVU39
 142 0058 7047     		bx	lr
 143              	.L9:
 951:Drivers/STM32F1xx_HAL_Driver/Src/stm32f1xx_hal_flash.c **** }  
 144              		.loc 1 951 3 is_stmt 1 discriminator 1 view .LVU40
 145 005a CB69     		ldr	r3, [r1, #28]
 146              	.LVL5:
 951:Drivers/STM32F1xx_HAL_Driver/Src/stm32f1xx_hal_flash.c **** }  
 147              		.loc 1 951 3 is_stmt 0 discriminator 1 view .LVU41
 148 005c 23F00103 		bic	r3, r3, #1
 149 0060 CB61     		str	r3, [r1, #28]
 150 0062 7047     		bx	lr
 151              	.L11:
 152              		.align	2
 153              	.L10:
 154 0064 00200240 		.word	1073881088
 155 0068 00000000 		.word	pFlash
 156              		.cfi_endproc
 157              	.LFE78:
 159              		.section	.text.HAL_FLASH_Program_IT,"ax",%progbits
 160              		.align	1
 161              		.global	HAL_FLASH_Program_IT
 162              		.syntax unified
 163              		.thumb
 164              		.thumb_func
 166              	HAL_FLASH_Program_IT:
 167              	.LVL6:
 168              	.LFB66:
 268:Drivers/STM32F1xx_HAL_Driver/Src/stm32f1xx_hal_flash.c ****   HAL_StatusTypeDef status = HAL_OK;
 169              		.loc 1 268 1 is_stmt 1 view -0
 170              		.cfi_startproc
 171              		@ args = 0, pretend = 0, frame = 0
 172              		@ frame_needed = 0, uses_anonymous_args = 0
 268:Drivers/STM32F1xx_HAL_Driver/Src/stm32f1xx_hal_flash.c ****   HAL_StatusTypeDef status = HAL_OK;
 173              		.loc 1 268 1 is_stmt 0 view .LVU43
 174 0000 10B5     		push	{r4, lr}
 175              	.LCFI0:
 176              		.cfi_def_cfa_offset 8
 177              		.cfi_offset 4, -8
 178              		.cfi_offset 14, -4
 179 0002 8446     		mov	ip, r0
 180 0004 0846     		mov	r0, r1
 181              	.LVL7:
 268:Drivers/STM32F1xx_HAL_Driver/Src/stm32f1xx_hal_flash.c ****   HAL_StatusTypeDef status = HAL_OK;
 182              		.loc 1 268 1 view .LVU44
 183 0006 1446     		mov	r4, r2
 184 0008 1946     		mov	r1, r3
 185              	.LVL8:
 268:Drivers/STM32F1xx_HAL_Driver/Src/stm32f1xx_hal_flash.c ****   HAL_StatusTypeDef status = HAL_OK;
 186              		.loc 1 268 1 view .LVU45
 187 000a 0B46     		mov	r3, r1
ARM GAS  /tmp/ccj4n996.s 			page 21


 269:Drivers/STM32F1xx_HAL_Driver/Src/stm32f1xx_hal_flash.c ****   
 188              		.loc 1 269 3 is_stmt 1 view .LVU46
 189              	.LVL9:
 272:Drivers/STM32F1xx_HAL_Driver/Src/stm32f1xx_hal_flash.c **** 
 190              		.loc 1 272 3 view .LVU47
 272:Drivers/STM32F1xx_HAL_Driver/Src/stm32f1xx_hal_flash.c **** 
 191              		.loc 1 272 3 view .LVU48
 192 000c 1749     		ldr	r1, .L21
 193 000e 097E     		ldrb	r1, [r1, #24]	@ zero_extendqisi2
 194 0010 0129     		cmp	r1, #1
 195 0012 28D0     		beq	.L17
 196 0014 2246     		mov	r2, r4
 197              	.LVL10:
 272:Drivers/STM32F1xx_HAL_Driver/Src/stm32f1xx_hal_flash.c **** 
 198              		.loc 1 272 3 discriminator 2 view .LVU49
 199 0016 1549     		ldr	r1, .L21
 200 0018 0124     		movs	r4, #1
 201 001a 0C76     		strb	r4, [r1, #24]
 272:Drivers/STM32F1xx_HAL_Driver/Src/stm32f1xx_hal_flash.c **** 
 202              		.loc 1 272 3 view .LVU50
 275:Drivers/STM32F1xx_HAL_Driver/Src/stm32f1xx_hal_flash.c ****   assert_param(IS_FLASH_PROGRAM_ADDRESS(Address));
 203              		.loc 1 275 3 view .LVU51
 276:Drivers/STM32F1xx_HAL_Driver/Src/stm32f1xx_hal_flash.c **** 
 204              		.loc 1 276 3 view .LVU52
 297:Drivers/STM32F1xx_HAL_Driver/Src/stm32f1xx_hal_flash.c **** #endif /* FLASH_BANK2_END */
 205              		.loc 1 297 3 view .LVU53
 206 001c 144C     		ldr	r4, .L21+4
 207 001e D4F810E0 		ldr	lr, [r4, #16]
 208 0022 4EF4A05E 		orr	lr, lr, #5120
 209 0026 C4F810E0 		str	lr, [r4, #16]
 300:Drivers/STM32F1xx_HAL_Driver/Src/stm32f1xx_hal_flash.c ****   pFlash.Data = Data;
 210              		.loc 1 300 3 view .LVU54
 300:Drivers/STM32F1xx_HAL_Driver/Src/stm32f1xx_hal_flash.c ****   pFlash.Data = Data;
 211              		.loc 1 300 18 is_stmt 0 view .LVU55
 212 002a 8860     		str	r0, [r1, #8]
 301:Drivers/STM32F1xx_HAL_Driver/Src/stm32f1xx_hal_flash.c **** 
 213              		.loc 1 301 3 is_stmt 1 view .LVU56
 301:Drivers/STM32F1xx_HAL_Driver/Src/stm32f1xx_hal_flash.c **** 
 214              		.loc 1 301 15 is_stmt 0 view .LVU57
 215 002c C1E90423 		strd	r2, [r1, #16]
 303:Drivers/STM32F1xx_HAL_Driver/Src/stm32f1xx_hal_flash.c ****   {
 216              		.loc 1 303 3 is_stmt 1 view .LVU58
 303:Drivers/STM32F1xx_HAL_Driver/Src/stm32f1xx_hal_flash.c ****   {
 217              		.loc 1 303 5 is_stmt 0 view .LVU59
 218 0030 BCF1010F 		cmp	ip, #1
 219 0034 0CD0     		beq	.L19
 309:Drivers/STM32F1xx_HAL_Driver/Src/stm32f1xx_hal_flash.c ****   {
 220              		.loc 1 309 8 is_stmt 1 view .LVU60
 309:Drivers/STM32F1xx_HAL_Driver/Src/stm32f1xx_hal_flash.c ****   {
 221              		.loc 1 309 10 is_stmt 0 view .LVU61
 222 0036 BCF1020F 		cmp	ip, #2
 223 003a 0ED0     		beq	.L20
 317:Drivers/STM32F1xx_HAL_Driver/Src/stm32f1xx_hal_flash.c ****     /* Program double word (64-bit : 4*16-bit) at a specified address. */
 224              		.loc 1 317 5 is_stmt 1 view .LVU62
 317:Drivers/STM32F1xx_HAL_Driver/Src/stm32f1xx_hal_flash.c ****     /* Program double word (64-bit : 4*16-bit) at a specified address. */
 225              		.loc 1 317 29 is_stmt 0 view .LVU63
 226 003c 0B49     		ldr	r1, .L21
ARM GAS  /tmp/ccj4n996.s 			page 22


 227 003e 0524     		movs	r4, #5
 228 0040 0C70     		strb	r4, [r1]
 319:Drivers/STM32F1xx_HAL_Driver/Src/stm32f1xx_hal_flash.c ****   }
 229              		.loc 1 319 5 is_stmt 1 view .LVU64
 319:Drivers/STM32F1xx_HAL_Driver/Src/stm32f1xx_hal_flash.c ****   }
 230              		.loc 1 319 26 is_stmt 0 view .LVU65
 231 0042 0424     		movs	r4, #4
 232 0044 4C60     		str	r4, [r1, #4]
 233              	.L15:
 323:Drivers/STM32F1xx_HAL_Driver/Src/stm32f1xx_hal_flash.c **** 
 234              		.loc 1 323 3 is_stmt 1 view .LVU66
 235 0046 91B2     		uxth	r1, r2
 236 0048 FFF7FEFF 		bl	FLASH_Program_HalfWord
 237              	.LVL11:
 325:Drivers/STM32F1xx_HAL_Driver/Src/stm32f1xx_hal_flash.c **** }
 238              		.loc 1 325 3 view .LVU67
 325:Drivers/STM32F1xx_HAL_Driver/Src/stm32f1xx_hal_flash.c **** }
 239              		.loc 1 325 10 is_stmt 0 view .LVU68
 240 004c 0020     		movs	r0, #0
 241              	.L13:
 326:Drivers/STM32F1xx_HAL_Driver/Src/stm32f1xx_hal_flash.c **** 
 242              		.loc 1 326 1 view .LVU69
 243 004e 10BD     		pop	{r4, pc}
 244              	.LVL12:
 245              	.L19:
 305:Drivers/STM32F1xx_HAL_Driver/Src/stm32f1xx_hal_flash.c ****     /* Program halfword (16-bit) at a specified address. */
 246              		.loc 1 305 5 is_stmt 1 view .LVU70
 305:Drivers/STM32F1xx_HAL_Driver/Src/stm32f1xx_hal_flash.c ****     /* Program halfword (16-bit) at a specified address. */
 247              		.loc 1 305 29 is_stmt 0 view .LVU71
 248 0050 0324     		movs	r4, #3
 249 0052 0C70     		strb	r4, [r1]
 307:Drivers/STM32F1xx_HAL_Driver/Src/stm32f1xx_hal_flash.c ****   }
 250              		.loc 1 307 5 is_stmt 1 view .LVU72
 307:Drivers/STM32F1xx_HAL_Driver/Src/stm32f1xx_hal_flash.c ****   }
 251              		.loc 1 307 26 is_stmt 0 view .LVU73
 252 0054 0124     		movs	r4, #1
 253 0056 4C60     		str	r4, [r1, #4]
 254 0058 F5E7     		b	.L15
 255              	.L20:
 311:Drivers/STM32F1xx_HAL_Driver/Src/stm32f1xx_hal_flash.c ****     /* Program word (32-bit : 2*16-bit) at a specified address. */
 256              		.loc 1 311 5 is_stmt 1 view .LVU74
 311:Drivers/STM32F1xx_HAL_Driver/Src/stm32f1xx_hal_flash.c ****     /* Program word (32-bit : 2*16-bit) at a specified address. */
 257              		.loc 1 311 29 is_stmt 0 view .LVU75
 258 005a 0449     		ldr	r1, .L21
 259 005c 0424     		movs	r4, #4
 260 005e 0C70     		strb	r4, [r1]
 313:Drivers/STM32F1xx_HAL_Driver/Src/stm32f1xx_hal_flash.c ****   }
 261              		.loc 1 313 5 is_stmt 1 view .LVU76
 313:Drivers/STM32F1xx_HAL_Driver/Src/stm32f1xx_hal_flash.c ****   }
 262              		.loc 1 313 26 is_stmt 0 view .LVU77
 263 0060 0224     		movs	r4, #2
 264 0062 4C60     		str	r4, [r1, #4]
 265 0064 EFE7     		b	.L15
 266              	.LVL13:
 267              	.L17:
 272:Drivers/STM32F1xx_HAL_Driver/Src/stm32f1xx_hal_flash.c **** 
 268              		.loc 1 272 3 discriminator 1 view .LVU78
ARM GAS  /tmp/ccj4n996.s 			page 23


 269 0066 0220     		movs	r0, #2
 270              	.LVL14:
 272:Drivers/STM32F1xx_HAL_Driver/Src/stm32f1xx_hal_flash.c **** 
 271              		.loc 1 272 3 discriminator 1 view .LVU79
 272 0068 F1E7     		b	.L13
 273              	.L22:
 274 006a 00BF     		.align	2
 275              	.L21:
 276 006c 00000000 		.word	pFlash
 277 0070 00200240 		.word	1073881088
 278              		.cfi_endproc
 279              	.LFE66:
 281              		.section	.text.HAL_FLASH_EndOfOperationCallback,"ax",%progbits
 282              		.align	1
 283              		.weak	HAL_FLASH_EndOfOperationCallback
 284              		.syntax unified
 285              		.thumb
 286              		.thumb_func
 288              	HAL_FLASH_EndOfOperationCallback:
 289              	.LVL15:
 290              	.LFB68:
 607:Drivers/STM32F1xx_HAL_Driver/Src/stm32f1xx_hal_flash.c ****   /* Prevent unused argument(s) compilation warning */
 291              		.loc 1 607 1 is_stmt 1 view -0
 292              		.cfi_startproc
 293              		@ args = 0, pretend = 0, frame = 0
 294              		@ frame_needed = 0, uses_anonymous_args = 0
 295              		@ link register save eliminated.
 609:Drivers/STM32F1xx_HAL_Driver/Src/stm32f1xx_hal_flash.c **** 
 296              		.loc 1 609 3 view .LVU81
 614:Drivers/STM32F1xx_HAL_Driver/Src/stm32f1xx_hal_flash.c **** 
 297              		.loc 1 614 1 is_stmt 0 view .LVU82
 298 0000 7047     		bx	lr
 299              		.cfi_endproc
 300              	.LFE68:
 302              		.section	.text.HAL_FLASH_OperationErrorCallback,"ax",%progbits
 303              		.align	1
 304              		.weak	HAL_FLASH_OperationErrorCallback
 305              		.syntax unified
 306              		.thumb
 307              		.thumb_func
 309              	HAL_FLASH_OperationErrorCallback:
 310              	.LVL16:
 311              	.LFB69:
 625:Drivers/STM32F1xx_HAL_Driver/Src/stm32f1xx_hal_flash.c ****   /* Prevent unused argument(s) compilation warning */
 312              		.loc 1 625 1 is_stmt 1 view -0
 313              		.cfi_startproc
 314              		@ args = 0, pretend = 0, frame = 0
 315              		@ frame_needed = 0, uses_anonymous_args = 0
 316              		@ link register save eliminated.
 627:Drivers/STM32F1xx_HAL_Driver/Src/stm32f1xx_hal_flash.c **** 
 317              		.loc 1 627 3 view .LVU84
 632:Drivers/STM32F1xx_HAL_Driver/Src/stm32f1xx_hal_flash.c **** 
 318              		.loc 1 632 1 is_stmt 0 view .LVU85
 319 0000 7047     		bx	lr
 320              		.cfi_endproc
 321              	.LFE69:
 323              		.section	.text.HAL_FLASH_IRQHandler,"ax",%progbits
ARM GAS  /tmp/ccj4n996.s 			page 24


 324              		.align	1
 325              		.global	HAL_FLASH_IRQHandler
 326              		.syntax unified
 327              		.thumb
 328              		.thumb_func
 330              	HAL_FLASH_IRQHandler:
 331              	.LFB67:
 333:Drivers/STM32F1xx_HAL_Driver/Src/stm32f1xx_hal_flash.c ****   uint32_t addresstmp = 0U;
 332              		.loc 1 333 1 is_stmt 1 view -0
 333              		.cfi_startproc
 334              		@ args = 0, pretend = 0, frame = 0
 335              		@ frame_needed = 0, uses_anonymous_args = 0
 336 0000 2DE91848 		push	{r3, r4, fp, lr}
 337              	.LCFI1:
 338              		.cfi_def_cfa_offset 16
 339              		.cfi_offset 3, -16
 340              		.cfi_offset 4, -12
 341              		.cfi_offset 11, -8
 342              		.cfi_offset 14, -4
 334:Drivers/STM32F1xx_HAL_Driver/Src/stm32f1xx_hal_flash.c ****   
 343              		.loc 1 334 3 view .LVU87
 344              	.LVL17:
 341:Drivers/STM32F1xx_HAL_Driver/Src/stm32f1xx_hal_flash.c **** #endif /* FLASH_BANK2_END */
 345              		.loc 1 341 3 view .LVU88
 341:Drivers/STM32F1xx_HAL_Driver/Src/stm32f1xx_hal_flash.c **** #endif /* FLASH_BANK2_END */
 346              		.loc 1 341 6 is_stmt 0 view .LVU89
 347 0004 514B     		ldr	r3, .L43
 348 0006 DB68     		ldr	r3, [r3, #12]
 341:Drivers/STM32F1xx_HAL_Driver/Src/stm32f1xx_hal_flash.c **** #endif /* FLASH_BANK2_END */
 349              		.loc 1 341 5 view .LVU90
 350 0008 13F0100F 		tst	r3, #16
 351 000c 04D1     		bne	.L26
 341:Drivers/STM32F1xx_HAL_Driver/Src/stm32f1xx_hal_flash.c **** #endif /* FLASH_BANK2_END */
 352              		.loc 1 341 48 discriminator 1 view .LVU91
 353 000e 4F4B     		ldr	r3, .L43
 354 0010 DB68     		ldr	r3, [r3, #12]
 341:Drivers/STM32F1xx_HAL_Driver/Src/stm32f1xx_hal_flash.c **** #endif /* FLASH_BANK2_END */
 355              		.loc 1 341 46 discriminator 1 view .LVU92
 356 0012 13F0040F 		tst	r3, #4
 357 0016 0CD0     		beq	.L27
 358              	.L26:
 345:Drivers/STM32F1xx_HAL_Driver/Src/stm32f1xx_hal_flash.c ****     /* Reset address */
 359              		.loc 1 345 5 is_stmt 1 view .LVU93
 345:Drivers/STM32F1xx_HAL_Driver/Src/stm32f1xx_hal_flash.c ****     /* Reset address */
 360              		.loc 1 345 16 is_stmt 0 view .LVU94
 361 0018 4D4C     		ldr	r4, .L43+4
 362 001a A368     		ldr	r3, [r4, #8]
 363 001c 9B46     		mov	fp, r3
 364              	.LVL18:
 347:Drivers/STM32F1xx_HAL_Driver/Src/stm32f1xx_hal_flash.c ****   
 365              		.loc 1 347 5 is_stmt 1 view .LVU95
 347:Drivers/STM32F1xx_HAL_Driver/Src/stm32f1xx_hal_flash.c ****   
 366              		.loc 1 347 20 is_stmt 0 view .LVU96
 367 001e 4FF0FF33 		mov	r3, #-1
 368              	.LVL19:
 347:Drivers/STM32F1xx_HAL_Driver/Src/stm32f1xx_hal_flash.c ****   
 369              		.loc 1 347 20 view .LVU97
ARM GAS  /tmp/ccj4n996.s 			page 25


 370 0022 A360     		str	r3, [r4, #8]
 350:Drivers/STM32F1xx_HAL_Driver/Src/stm32f1xx_hal_flash.c ****     
 371              		.loc 1 350 5 is_stmt 1 view .LVU98
 372 0024 FFF7FEFF 		bl	FLASH_SetErrorCode
 373              	.LVL20:
 353:Drivers/STM32F1xx_HAL_Driver/Src/stm32f1xx_hal_flash.c **** 
 374              		.loc 1 353 5 view .LVU99
 375 0028 5846     		mov	r0, fp
 376 002a FFF7FEFF 		bl	HAL_FLASH_OperationErrorCallback
 377              	.LVL21:
 356:Drivers/STM32F1xx_HAL_Driver/Src/stm32f1xx_hal_flash.c ****   }
 378              		.loc 1 356 5 view .LVU100
 356:Drivers/STM32F1xx_HAL_Driver/Src/stm32f1xx_hal_flash.c ****   }
 379              		.loc 1 356 29 is_stmt 0 view .LVU101
 380 002e 0023     		movs	r3, #0
 381 0030 2370     		strb	r3, [r4]
 382              	.LVL22:
 383              	.L27:
 366:Drivers/STM32F1xx_HAL_Driver/Src/stm32f1xx_hal_flash.c ****   {
 384              		.loc 1 366 3 is_stmt 1 view .LVU102
 366:Drivers/STM32F1xx_HAL_Driver/Src/stm32f1xx_hal_flash.c ****   {
 385              		.loc 1 366 6 is_stmt 0 view .LVU103
 386 0032 464B     		ldr	r3, .L43
 387 0034 DB68     		ldr	r3, [r3, #12]
 366:Drivers/STM32F1xx_HAL_Driver/Src/stm32f1xx_hal_flash.c ****   {
 388              		.loc 1 366 5 view .LVU104
 389 0036 13F0200F 		tst	r3, #32
 390 003a 27D0     		beq	.L28
 369:Drivers/STM32F1xx_HAL_Driver/Src/stm32f1xx_hal_flash.c **** #endif /* FLASH_BANK2_END */
 391              		.loc 1 369 5 is_stmt 1 view .LVU105
 369:Drivers/STM32F1xx_HAL_Driver/Src/stm32f1xx_hal_flash.c **** #endif /* FLASH_BANK2_END */
 392              		.loc 1 369 5 view .LVU106
 369:Drivers/STM32F1xx_HAL_Driver/Src/stm32f1xx_hal_flash.c **** #endif /* FLASH_BANK2_END */
 393              		.loc 1 369 5 discriminator 2 view .LVU107
 394 003c 434B     		ldr	r3, .L43
 395 003e 2022     		movs	r2, #32
 396 0040 DA60     		str	r2, [r3, #12]
 369:Drivers/STM32F1xx_HAL_Driver/Src/stm32f1xx_hal_flash.c **** #endif /* FLASH_BANK2_END */
 397              		.loc 1 369 5 view .LVU108
 373:Drivers/STM32F1xx_HAL_Driver/Src/stm32f1xx_hal_flash.c ****     {
 398              		.loc 1 373 5 view .LVU109
 373:Drivers/STM32F1xx_HAL_Driver/Src/stm32f1xx_hal_flash.c ****     {
 399              		.loc 1 373 14 is_stmt 0 view .LVU110
 400 0042 434B     		ldr	r3, .L43+4
 401 0044 1B78     		ldrb	r3, [r3]	@ zero_extendqisi2
 373:Drivers/STM32F1xx_HAL_Driver/Src/stm32f1xx_hal_flash.c ****     {
 402              		.loc 1 373 7 view .LVU111
 403 0046 0BB3     		cbz	r3, .L28
 375:Drivers/STM32F1xx_HAL_Driver/Src/stm32f1xx_hal_flash.c ****       {
 404              		.loc 1 375 7 is_stmt 1 view .LVU112
 375:Drivers/STM32F1xx_HAL_Driver/Src/stm32f1xx_hal_flash.c ****       {
 405              		.loc 1 375 16 is_stmt 0 view .LVU113
 406 0048 414B     		ldr	r3, .L43+4
 407 004a 1B78     		ldrb	r3, [r3]	@ zero_extendqisi2
 375:Drivers/STM32F1xx_HAL_Driver/Src/stm32f1xx_hal_flash.c ****       {
 408              		.loc 1 375 9 view .LVU114
 409 004c 012B     		cmp	r3, #1
ARM GAS  /tmp/ccj4n996.s 			page 26


 410 004e 2ED0     		beq	.L38
 406:Drivers/STM32F1xx_HAL_Driver/Src/stm32f1xx_hal_flash.c ****       {
 411              		.loc 1 406 12 is_stmt 1 view .LVU115
 406:Drivers/STM32F1xx_HAL_Driver/Src/stm32f1xx_hal_flash.c ****       {
 412              		.loc 1 406 21 is_stmt 0 view .LVU116
 413 0050 3F4B     		ldr	r3, .L43+4
 414 0052 1B78     		ldrb	r3, [r3]	@ zero_extendqisi2
 406:Drivers/STM32F1xx_HAL_Driver/Src/stm32f1xx_hal_flash.c ****       {
 415              		.loc 1 406 14 view .LVU117
 416 0054 022B     		cmp	r3, #2
 417 0056 49D0     		beq	.L39
 429:Drivers/STM32F1xx_HAL_Driver/Src/stm32f1xx_hal_flash.c ****         
 418              		.loc 1 429 9 is_stmt 1 view .LVU118
 429:Drivers/STM32F1xx_HAL_Driver/Src/stm32f1xx_hal_flash.c ****         
 419              		.loc 1 429 15 is_stmt 0 view .LVU119
 420 0058 3D4B     		ldr	r3, .L43+4
 421 005a 5A68     		ldr	r2, [r3, #4]
 429:Drivers/STM32F1xx_HAL_Driver/Src/stm32f1xx_hal_flash.c ****         
 422              		.loc 1 429 29 view .LVU120
 423 005c 013A     		subs	r2, r2, #1
 424 005e 5A60     		str	r2, [r3, #4]
 432:Drivers/STM32F1xx_HAL_Driver/Src/stm32f1xx_hal_flash.c ****         {
 425              		.loc 1 432 9 is_stmt 1 view .LVU121
 432:Drivers/STM32F1xx_HAL_Driver/Src/stm32f1xx_hal_flash.c ****         {
 426              		.loc 1 432 18 is_stmt 0 view .LVU122
 427 0060 5B68     		ldr	r3, [r3, #4]
 432:Drivers/STM32F1xx_HAL_Driver/Src/stm32f1xx_hal_flash.c ****         {
 428              		.loc 1 432 11 view .LVU123
 429 0062 002B     		cmp	r3, #0
 430 0064 4ED1     		bne	.L40
 451:Drivers/STM32F1xx_HAL_Driver/Src/stm32f1xx_hal_flash.c ****           {
 431              		.loc 1 451 11 is_stmt 1 view .LVU124
 451:Drivers/STM32F1xx_HAL_Driver/Src/stm32f1xx_hal_flash.c ****           {
 432              		.loc 1 451 21 is_stmt 0 view .LVU125
 433 0066 3A4B     		ldr	r3, .L43+4
 434 0068 1B78     		ldrb	r3, [r3]	@ zero_extendqisi2
 451:Drivers/STM32F1xx_HAL_Driver/Src/stm32f1xx_hal_flash.c ****           {
 435              		.loc 1 451 14 view .LVU126
 436 006a 032B     		cmp	r3, #3
 437 006c 63D0     		beq	.L41
 455:Drivers/STM32F1xx_HAL_Driver/Src/stm32f1xx_hal_flash.c ****           {
 438              		.loc 1 455 16 is_stmt 1 view .LVU127
 455:Drivers/STM32F1xx_HAL_Driver/Src/stm32f1xx_hal_flash.c ****           {
 439              		.loc 1 455 26 is_stmt 0 view .LVU128
 440 006e 384B     		ldr	r3, .L43+4
 441 0070 1B78     		ldrb	r3, [r3]	@ zero_extendqisi2
 455:Drivers/STM32F1xx_HAL_Driver/Src/stm32f1xx_hal_flash.c ****           {
 442              		.loc 1 455 19 view .LVU129
 443 0072 042B     		cmp	r3, #4
 444 0074 64D0     		beq	.L42
 461:Drivers/STM32F1xx_HAL_Driver/Src/stm32f1xx_hal_flash.c ****           }
 445              		.loc 1 461 13 is_stmt 1 view .LVU130
 461:Drivers/STM32F1xx_HAL_Driver/Src/stm32f1xx_hal_flash.c ****           }
 446              		.loc 1 461 52 is_stmt 0 view .LVU131
 447 0076 364B     		ldr	r3, .L43+4
 448 0078 9868     		ldr	r0, [r3, #8]
 461:Drivers/STM32F1xx_HAL_Driver/Src/stm32f1xx_hal_flash.c ****           }
ARM GAS  /tmp/ccj4n996.s 			page 27


 449              		.loc 1 461 13 view .LVU132
 450 007a 0638     		subs	r0, r0, #6
 451 007c FFF7FEFF 		bl	HAL_FLASH_EndOfOperationCallback
 452              	.LVL23:
 453              	.L34:
 465:Drivers/STM32F1xx_HAL_Driver/Src/stm32f1xx_hal_flash.c ****           pFlash.ProcedureOnGoing = FLASH_PROC_NONE;
 454              		.loc 1 465 11 is_stmt 1 view .LVU133
 465:Drivers/STM32F1xx_HAL_Driver/Src/stm32f1xx_hal_flash.c ****           pFlash.ProcedureOnGoing = FLASH_PROC_NONE;
 455              		.loc 1 465 26 is_stmt 0 view .LVU134
 456 0080 334B     		ldr	r3, .L43+4
 457 0082 4FF0FF32 		mov	r2, #-1
 458 0086 9A60     		str	r2, [r3, #8]
 466:Drivers/STM32F1xx_HAL_Driver/Src/stm32f1xx_hal_flash.c ****         }
 459              		.loc 1 466 11 is_stmt 1 view .LVU135
 466:Drivers/STM32F1xx_HAL_Driver/Src/stm32f1xx_hal_flash.c ****         }
 460              		.loc 1 466 35 is_stmt 0 view .LVU136
 461 0088 0022     		movs	r2, #0
 462 008a 1A70     		strb	r2, [r3]
 463              	.L28:
 575:Drivers/STM32F1xx_HAL_Driver/Src/stm32f1xx_hal_flash.c ****   {
 464              		.loc 1 575 3 is_stmt 1 view .LVU137
 575:Drivers/STM32F1xx_HAL_Driver/Src/stm32f1xx_hal_flash.c ****   {
 465              		.loc 1 575 12 is_stmt 0 view .LVU138
 466 008c 304B     		ldr	r3, .L43+4
 467 008e 1B78     		ldrb	r3, [r3]	@ zero_extendqisi2
 575:Drivers/STM32F1xx_HAL_Driver/Src/stm32f1xx_hal_flash.c ****   {
 468              		.loc 1 575 5 view .LVU139
 469 0090 5BB9     		cbnz	r3, .L25
 586:Drivers/STM32F1xx_HAL_Driver/Src/stm32f1xx_hal_flash.c **** 
 470              		.loc 1 586 5 is_stmt 1 view .LVU140
 471 0092 2E4B     		ldr	r3, .L43
 472 0094 1A69     		ldr	r2, [r3, #16]
 473 0096 22F00702 		bic	r2, r2, #7
 474 009a 1A61     		str	r2, [r3, #16]
 589:Drivers/STM32F1xx_HAL_Driver/Src/stm32f1xx_hal_flash.c **** #endif /* FLASH_BANK2_END */
 475              		.loc 1 589 5 view .LVU141
 476 009c 1A69     		ldr	r2, [r3, #16]
 477 009e 22F4A052 		bic	r2, r2, #5120
 478 00a2 1A61     		str	r2, [r3, #16]
 593:Drivers/STM32F1xx_HAL_Driver/Src/stm32f1xx_hal_flash.c ****   }
 479              		.loc 1 593 5 view .LVU142
 593:Drivers/STM32F1xx_HAL_Driver/Src/stm32f1xx_hal_flash.c ****   }
 480              		.loc 1 593 5 view .LVU143
 481 00a4 2A4B     		ldr	r3, .L43+4
 482 00a6 0022     		movs	r2, #0
 483 00a8 1A76     		strb	r2, [r3, #24]
 593:Drivers/STM32F1xx_HAL_Driver/Src/stm32f1xx_hal_flash.c ****   }
 484              		.loc 1 593 5 view .LVU144
 485              	.L25:
 595:Drivers/STM32F1xx_HAL_Driver/Src/stm32f1xx_hal_flash.c **** 
 486              		.loc 1 595 1 is_stmt 0 view .LVU145
 487 00aa BDE81888 		pop	{r3, r4, fp, pc}
 488              	.L38:
 378:Drivers/STM32F1xx_HAL_Driver/Src/stm32f1xx_hal_flash.c **** 
 489              		.loc 1 378 9 is_stmt 1 view .LVU146
 378:Drivers/STM32F1xx_HAL_Driver/Src/stm32f1xx_hal_flash.c **** 
 490              		.loc 1 378 15 is_stmt 0 view .LVU147
ARM GAS  /tmp/ccj4n996.s 			page 28


 491 00ae 284B     		ldr	r3, .L43+4
 492 00b0 5A68     		ldr	r2, [r3, #4]
 378:Drivers/STM32F1xx_HAL_Driver/Src/stm32f1xx_hal_flash.c **** 
 493              		.loc 1 378 29 view .LVU148
 494 00b2 013A     		subs	r2, r2, #1
 495 00b4 5A60     		str	r2, [r3, #4]
 381:Drivers/STM32F1xx_HAL_Driver/Src/stm32f1xx_hal_flash.c ****         {
 496              		.loc 1 381 9 is_stmt 1 view .LVU149
 381:Drivers/STM32F1xx_HAL_Driver/Src/stm32f1xx_hal_flash.c ****         {
 497              		.loc 1 381 18 is_stmt 0 view .LVU150
 498 00b6 5B68     		ldr	r3, [r3, #4]
 381:Drivers/STM32F1xx_HAL_Driver/Src/stm32f1xx_hal_flash.c ****         {
 499              		.loc 1 381 11 view .LVU151
 500 00b8 7BB1     		cbz	r3, .L30
 383:Drivers/STM32F1xx_HAL_Driver/Src/stm32f1xx_hal_flash.c ****           /*Indicate user which sector has been erased */
 501              		.loc 1 383 11 is_stmt 1 view .LVU152
 383:Drivers/STM32F1xx_HAL_Driver/Src/stm32f1xx_hal_flash.c ****           /*Indicate user which sector has been erased */
 502              		.loc 1 383 22 is_stmt 0 view .LVU153
 503 00ba 254C     		ldr	r4, .L43+4
 504 00bc A068     		ldr	r0, [r4, #8]
 505              	.LVL24:
 385:Drivers/STM32F1xx_HAL_Driver/Src/stm32f1xx_hal_flash.c **** 
 506              		.loc 1 385 11 is_stmt 1 view .LVU154
 507 00be FFF7FEFF 		bl	HAL_FLASH_EndOfOperationCallback
 508              	.LVL25:
 388:Drivers/STM32F1xx_HAL_Driver/Src/stm32f1xx_hal_flash.c ****           pFlash.Address = addresstmp;
 509              		.loc 1 388 11 view .LVU155
 388:Drivers/STM32F1xx_HAL_Driver/Src/stm32f1xx_hal_flash.c ****           pFlash.Address = addresstmp;
 510              		.loc 1 388 30 is_stmt 0 view .LVU156
 511 00c2 A068     		ldr	r0, [r4, #8]
 388:Drivers/STM32F1xx_HAL_Driver/Src/stm32f1xx_hal_flash.c ****           pFlash.Address = addresstmp;
 512              		.loc 1 388 22 view .LVU157
 513 00c4 00F58060 		add	r0, r0, #1024
 514              	.LVL26:
 389:Drivers/STM32F1xx_HAL_Driver/Src/stm32f1xx_hal_flash.c **** 
 515              		.loc 1 389 11 is_stmt 1 view .LVU158
 389:Drivers/STM32F1xx_HAL_Driver/Src/stm32f1xx_hal_flash.c **** 
 516              		.loc 1 389 26 is_stmt 0 view .LVU159
 517 00c8 A060     		str	r0, [r4, #8]
 392:Drivers/STM32F1xx_HAL_Driver/Src/stm32f1xx_hal_flash.c **** 
 518              		.loc 1 392 11 is_stmt 1 view .LVU160
 519 00ca 204A     		ldr	r2, .L43
 520 00cc 1369     		ldr	r3, [r2, #16]
 521 00ce 23F00203 		bic	r3, r3, #2
 522 00d2 1361     		str	r3, [r2, #16]
 394:Drivers/STM32F1xx_HAL_Driver/Src/stm32f1xx_hal_flash.c ****         }
 523              		.loc 1 394 11 view .LVU161
 524 00d4 FFF7FEFF 		bl	FLASH_PageErase
 525              	.LVL27:
 394:Drivers/STM32F1xx_HAL_Driver/Src/stm32f1xx_hal_flash.c ****         }
 526              		.loc 1 394 11 is_stmt 0 view .LVU162
 527 00d8 D8E7     		b	.L28
 528              	.LVL28:
 529              	.L30:
 400:Drivers/STM32F1xx_HAL_Driver/Src/stm32f1xx_hal_flash.c ****           pFlash.ProcedureOnGoing = FLASH_PROC_NONE;
 530              		.loc 1 400 11 is_stmt 1 view .LVU163
 400:Drivers/STM32F1xx_HAL_Driver/Src/stm32f1xx_hal_flash.c ****           pFlash.ProcedureOnGoing = FLASH_PROC_NONE;
ARM GAS  /tmp/ccj4n996.s 			page 29


 531              		.loc 1 400 26 is_stmt 0 view .LVU164
 532 00da 1D4B     		ldr	r3, .L43+4
 533 00dc 4FF0FF30 		mov	r0, #-1
 534 00e0 9860     		str	r0, [r3, #8]
 401:Drivers/STM32F1xx_HAL_Driver/Src/stm32f1xx_hal_flash.c ****           /* FLASH EOP interrupt user callback */
 535              		.loc 1 401 11 is_stmt 1 view .LVU165
 401:Drivers/STM32F1xx_HAL_Driver/Src/stm32f1xx_hal_flash.c ****           /* FLASH EOP interrupt user callback */
 536              		.loc 1 401 35 is_stmt 0 view .LVU166
 537 00e2 0022     		movs	r2, #0
 538 00e4 1A70     		strb	r2, [r3]
 403:Drivers/STM32F1xx_HAL_Driver/Src/stm32f1xx_hal_flash.c ****         }
 539              		.loc 1 403 11 is_stmt 1 view .LVU167
 540 00e6 FFF7FEFF 		bl	HAL_FLASH_EndOfOperationCallback
 541              	.LVL29:
 542 00ea CFE7     		b	.L28
 543              	.LVL30:
 544              	.L39:
 409:Drivers/STM32F1xx_HAL_Driver/Src/stm32f1xx_hal_flash.c **** 
 545              		.loc 1 409 9 view .LVU168
 546 00ec 174A     		ldr	r2, .L43
 547 00ee 1369     		ldr	r3, [r2, #16]
 548 00f0 23F00403 		bic	r3, r3, #4
 549 00f4 1361     		str	r3, [r2, #16]
 418:Drivers/STM32F1xx_HAL_Driver/Src/stm32f1xx_hal_flash.c **** 
 550              		.loc 1 418 11 view .LVU169
 551 00f6 0020     		movs	r0, #0
 552 00f8 FFF7FEFF 		bl	HAL_FLASH_EndOfOperationCallback
 553              	.LVL31:
 421:Drivers/STM32F1xx_HAL_Driver/Src/stm32f1xx_hal_flash.c ****         }
 554              		.loc 1 421 11 view .LVU170
 421:Drivers/STM32F1xx_HAL_Driver/Src/stm32f1xx_hal_flash.c ****         }
 555              		.loc 1 421 35 is_stmt 0 view .LVU171
 556 00fc 144B     		ldr	r3, .L43+4
 557 00fe 0022     		movs	r2, #0
 558 0100 1A70     		strb	r2, [r3]
 559 0102 C3E7     		b	.L28
 560              	.L40:
 435:Drivers/STM32F1xx_HAL_Driver/Src/stm32f1xx_hal_flash.c ****           addresstmp = pFlash.Address;
 561              		.loc 1 435 11 is_stmt 1 view .LVU172
 435:Drivers/STM32F1xx_HAL_Driver/Src/stm32f1xx_hal_flash.c ****           addresstmp = pFlash.Address;
 562              		.loc 1 435 17 is_stmt 0 view .LVU173
 563 0104 124B     		ldr	r3, .L43+4
 564 0106 9A68     		ldr	r2, [r3, #8]
 435:Drivers/STM32F1xx_HAL_Driver/Src/stm32f1xx_hal_flash.c ****           addresstmp = pFlash.Address;
 565              		.loc 1 435 26 view .LVU174
 566 0108 0232     		adds	r2, r2, #2
 567 010a 9A60     		str	r2, [r3, #8]
 436:Drivers/STM32F1xx_HAL_Driver/Src/stm32f1xx_hal_flash.c ****           
 568              		.loc 1 436 11 is_stmt 1 view .LVU175
 436:Drivers/STM32F1xx_HAL_Driver/Src/stm32f1xx_hal_flash.c ****           
 569              		.loc 1 436 22 is_stmt 0 view .LVU176
 570 010c 9C68     		ldr	r4, [r3, #8]
 571              	.LVL32:
 439:Drivers/STM32F1xx_HAL_Driver/Src/stm32f1xx_hal_flash.c ****           
 572              		.loc 1 439 11 is_stmt 1 view .LVU177
 439:Drivers/STM32F1xx_HAL_Driver/Src/stm32f1xx_hal_flash.c ****           
 573              		.loc 1 439 32 is_stmt 0 view .LVU178
ARM GAS  /tmp/ccj4n996.s 			page 30


 574 010e D3E90412 		ldrd	r1, [r3, #16]
 439:Drivers/STM32F1xx_HAL_Driver/Src/stm32f1xx_hal_flash.c ****           
 575              		.loc 1 439 38 view .LVU179
 576 0112 080C     		lsrs	r0, r1, #16
 577 0114 40EA0240 		orr	r0, r0, r2, lsl #16
 578 0118 110C     		lsrs	r1, r2, #16
 439:Drivers/STM32F1xx_HAL_Driver/Src/stm32f1xx_hal_flash.c ****           
 579              		.loc 1 439 23 view .LVU180
 580 011a C3E90401 		strd	r0, [r3, #16]
 442:Drivers/STM32F1xx_HAL_Driver/Src/stm32f1xx_hal_flash.c **** 
 581              		.loc 1 442 11 is_stmt 1 view .LVU181
 582 011e 0B49     		ldr	r1, .L43
 583 0120 0A69     		ldr	r2, [r1, #16]
 584 0122 22F00102 		bic	r2, r2, #1
 585 0126 0A61     		str	r2, [r1, #16]
 445:Drivers/STM32F1xx_HAL_Driver/Src/stm32f1xx_hal_flash.c ****         }
 586              		.loc 1 445 11 view .LVU182
 445:Drivers/STM32F1xx_HAL_Driver/Src/stm32f1xx_hal_flash.c ****         }
 587              		.loc 1 445 62 is_stmt 0 view .LVU183
 588 0128 D3E90423 		ldrd	r2, [r3, #16]
 445:Drivers/STM32F1xx_HAL_Driver/Src/stm32f1xx_hal_flash.c ****         }
 589              		.loc 1 445 11 view .LVU184
 590 012c 91B2     		uxth	r1, r2
 591 012e 2046     		mov	r0, r4
 592 0130 FFF7FEFF 		bl	FLASH_Program_HalfWord
 593              	.LVL33:
 594 0134 AAE7     		b	.L28
 595              	.LVL34:
 596              	.L41:
 453:Drivers/STM32F1xx_HAL_Driver/Src/stm32f1xx_hal_flash.c ****           }
 597              		.loc 1 453 13 is_stmt 1 view .LVU185
 453:Drivers/STM32F1xx_HAL_Driver/Src/stm32f1xx_hal_flash.c ****           }
 598              		.loc 1 453 52 is_stmt 0 view .LVU186
 599 0136 064B     		ldr	r3, .L43+4
 600 0138 9868     		ldr	r0, [r3, #8]
 453:Drivers/STM32F1xx_HAL_Driver/Src/stm32f1xx_hal_flash.c ****           }
 601              		.loc 1 453 13 view .LVU187
 602 013a FFF7FEFF 		bl	HAL_FLASH_EndOfOperationCallback
 603              	.LVL35:
 604 013e 9FE7     		b	.L34
 605              	.L42:
 457:Drivers/STM32F1xx_HAL_Driver/Src/stm32f1xx_hal_flash.c ****           }
 606              		.loc 1 457 13 is_stmt 1 view .LVU188
 457:Drivers/STM32F1xx_HAL_Driver/Src/stm32f1xx_hal_flash.c ****           }
 607              		.loc 1 457 52 is_stmt 0 view .LVU189
 608 0140 034B     		ldr	r3, .L43+4
 609 0142 9868     		ldr	r0, [r3, #8]
 457:Drivers/STM32F1xx_HAL_Driver/Src/stm32f1xx_hal_flash.c ****           }
 610              		.loc 1 457 13 view .LVU190
 611 0144 0238     		subs	r0, r0, #2
 612 0146 FFF7FEFF 		bl	HAL_FLASH_EndOfOperationCallback
 613              	.LVL36:
 614 014a 99E7     		b	.L34
 615              	.L44:
 616              		.align	2
 617              	.L43:
 618 014c 00200240 		.word	1073881088
ARM GAS  /tmp/ccj4n996.s 			page 31


 619 0150 00000000 		.word	pFlash
 620              		.cfi_endproc
 621              	.LFE67:
 623              		.section	.text.HAL_FLASH_Unlock,"ax",%progbits
 624              		.align	1
 625              		.global	HAL_FLASH_Unlock
 626              		.syntax unified
 627              		.thumb
 628              		.thumb_func
 630              	HAL_FLASH_Unlock:
 631              	.LFB70:
 658:Drivers/STM32F1xx_HAL_Driver/Src/stm32f1xx_hal_flash.c ****   HAL_StatusTypeDef status = HAL_OK;
 632              		.loc 1 658 1 is_stmt 1 view -0
 633              		.cfi_startproc
 634              		@ args = 0, pretend = 0, frame = 0
 635              		@ frame_needed = 0, uses_anonymous_args = 0
 636              		@ link register save eliminated.
 659:Drivers/STM32F1xx_HAL_Driver/Src/stm32f1xx_hal_flash.c **** 
 637              		.loc 1 659 3 view .LVU192
 638              	.LVL37:
 661:Drivers/STM32F1xx_HAL_Driver/Src/stm32f1xx_hal_flash.c ****   {
 639              		.loc 1 661 3 view .LVU193
 661:Drivers/STM32F1xx_HAL_Driver/Src/stm32f1xx_hal_flash.c ****   {
 640              		.loc 1 661 6 is_stmt 0 view .LVU194
 641 0000 0A4B     		ldr	r3, .L49
 642 0002 1B69     		ldr	r3, [r3, #16]
 661:Drivers/STM32F1xx_HAL_Driver/Src/stm32f1xx_hal_flash.c ****   {
 643              		.loc 1 661 5 view .LVU195
 644 0004 13F0800F 		tst	r3, #128
 645 0008 0BD0     		beq	.L47
 664:Drivers/STM32F1xx_HAL_Driver/Src/stm32f1xx_hal_flash.c ****     WRITE_REG(FLASH->KEYR, FLASH_KEY2);
 646              		.loc 1 664 5 is_stmt 1 view .LVU196
 647 000a 084B     		ldr	r3, .L49
 648 000c 084A     		ldr	r2, .L49+4
 649 000e 5A60     		str	r2, [r3, #4]
 665:Drivers/STM32F1xx_HAL_Driver/Src/stm32f1xx_hal_flash.c **** 
 650              		.loc 1 665 5 view .LVU197
 651 0010 02F18832 		add	r2, r2, #-2004318072
 652 0014 5A60     		str	r2, [r3, #4]
 668:Drivers/STM32F1xx_HAL_Driver/Src/stm32f1xx_hal_flash.c ****     {
 653              		.loc 1 668 5 view .LVU198
 668:Drivers/STM32F1xx_HAL_Driver/Src/stm32f1xx_hal_flash.c ****     {
 654              		.loc 1 668 8 is_stmt 0 view .LVU199
 655 0016 1B69     		ldr	r3, [r3, #16]
 668:Drivers/STM32F1xx_HAL_Driver/Src/stm32f1xx_hal_flash.c ****     {
 656              		.loc 1 668 7 view .LVU200
 657 0018 13F0800F 		tst	r3, #128
 658 001c 03D1     		bne	.L48
 659:Drivers/STM32F1xx_HAL_Driver/Src/stm32f1xx_hal_flash.c **** 
 659              		.loc 1 659 21 view .LVU201
 660 001e 0020     		movs	r0, #0
 661 0020 7047     		bx	lr
 662              	.L47:
 663 0022 0020     		movs	r0, #0
 664 0024 7047     		bx	lr
 665              	.L48:
 670:Drivers/STM32F1xx_HAL_Driver/Src/stm32f1xx_hal_flash.c ****     }
ARM GAS  /tmp/ccj4n996.s 			page 32


 666              		.loc 1 670 14 view .LVU202
 667 0026 0120     		movs	r0, #1
 668              	.LVL38:
 688:Drivers/STM32F1xx_HAL_Driver/Src/stm32f1xx_hal_flash.c **** }
 669              		.loc 1 688 3 is_stmt 1 view .LVU203
 689:Drivers/STM32F1xx_HAL_Driver/Src/stm32f1xx_hal_flash.c **** 
 670              		.loc 1 689 1 is_stmt 0 view .LVU204
 671 0028 7047     		bx	lr
 672              	.L50:
 673 002a 00BF     		.align	2
 674              	.L49:
 675 002c 00200240 		.word	1073881088
 676 0030 23016745 		.word	1164378403
 677              		.cfi_endproc
 678              	.LFE70:
 680              		.section	.text.HAL_FLASH_Lock,"ax",%progbits
 681              		.align	1
 682              		.global	HAL_FLASH_Lock
 683              		.syntax unified
 684              		.thumb
 685              		.thumb_func
 687              	HAL_FLASH_Lock:
 688              	.LFB71:
 696:Drivers/STM32F1xx_HAL_Driver/Src/stm32f1xx_hal_flash.c ****   /* Set the LOCK Bit to lock the FLASH Registers access */
 689              		.loc 1 696 1 is_stmt 1 view -0
 690              		.cfi_startproc
 691              		@ args = 0, pretend = 0, frame = 0
 692              		@ frame_needed = 0, uses_anonymous_args = 0
 693              		@ link register save eliminated.
 698:Drivers/STM32F1xx_HAL_Driver/Src/stm32f1xx_hal_flash.c ****   
 694              		.loc 1 698 3 view .LVU206
 695 0000 034A     		ldr	r2, .L52
 696 0002 1369     		ldr	r3, [r2, #16]
 697 0004 43F08003 		orr	r3, r3, #128
 698 0008 1361     		str	r3, [r2, #16]
 705:Drivers/STM32F1xx_HAL_Driver/Src/stm32f1xx_hal_flash.c **** }
 699              		.loc 1 705 3 view .LVU207
 706:Drivers/STM32F1xx_HAL_Driver/Src/stm32f1xx_hal_flash.c **** 
 700              		.loc 1 706 1 is_stmt 0 view .LVU208
 701 000a 0020     		movs	r0, #0
 702 000c 7047     		bx	lr
 703              	.L53:
 704 000e 00BF     		.align	2
 705              	.L52:
 706 0010 00200240 		.word	1073881088
 707              		.cfi_endproc
 708              	.LFE71:
 710              		.section	.text.HAL_FLASH_OB_Unlock,"ax",%progbits
 711              		.align	1
 712              		.global	HAL_FLASH_OB_Unlock
 713              		.syntax unified
 714              		.thumb
 715              		.thumb_func
 717              	HAL_FLASH_OB_Unlock:
 718              	.LFB72:
 713:Drivers/STM32F1xx_HAL_Driver/Src/stm32f1xx_hal_flash.c ****   if (HAL_IS_BIT_CLR(FLASH->CR, FLASH_CR_OPTWRE))
 719              		.loc 1 713 1 is_stmt 1 view -0
ARM GAS  /tmp/ccj4n996.s 			page 33


 720              		.cfi_startproc
 721              		@ args = 0, pretend = 0, frame = 0
 722              		@ frame_needed = 0, uses_anonymous_args = 0
 723              		@ link register save eliminated.
 714:Drivers/STM32F1xx_HAL_Driver/Src/stm32f1xx_hal_flash.c ****   {
 724              		.loc 1 714 3 view .LVU210
 714:Drivers/STM32F1xx_HAL_Driver/Src/stm32f1xx_hal_flash.c ****   {
 725              		.loc 1 714 7 is_stmt 0 view .LVU211
 726 0000 074B     		ldr	r3, .L57
 727 0002 1B69     		ldr	r3, [r3, #16]
 714:Drivers/STM32F1xx_HAL_Driver/Src/stm32f1xx_hal_flash.c ****   {
 728              		.loc 1 714 6 view .LVU212
 729 0004 13F4007F 		tst	r3, #512
 730 0008 07D1     		bne	.L56
 717:Drivers/STM32F1xx_HAL_Driver/Src/stm32f1xx_hal_flash.c ****     WRITE_REG(FLASH->OPTKEYR, FLASH_OPTKEY2);
 731              		.loc 1 717 5 is_stmt 1 view .LVU213
 732 000a 054B     		ldr	r3, .L57
 733 000c 054A     		ldr	r2, .L57+4
 734 000e 9A60     		str	r2, [r3, #8]
 718:Drivers/STM32F1xx_HAL_Driver/Src/stm32f1xx_hal_flash.c ****   }
 735              		.loc 1 718 5 view .LVU214
 736 0010 02F18832 		add	r2, r2, #-2004318072
 737 0014 9A60     		str	r2, [r3, #8]
 725:Drivers/STM32F1xx_HAL_Driver/Src/stm32f1xx_hal_flash.c **** }
 738              		.loc 1 725 3 view .LVU215
 725:Drivers/STM32F1xx_HAL_Driver/Src/stm32f1xx_hal_flash.c **** }
 739              		.loc 1 725 10 is_stmt 0 view .LVU216
 740 0016 0020     		movs	r0, #0
 741 0018 7047     		bx	lr
 742              	.L56:
 722:Drivers/STM32F1xx_HAL_Driver/Src/stm32f1xx_hal_flash.c ****   }  
 743              		.loc 1 722 12 view .LVU217
 744 001a 0120     		movs	r0, #1
 726:Drivers/STM32F1xx_HAL_Driver/Src/stm32f1xx_hal_flash.c **** 
 745              		.loc 1 726 1 view .LVU218
 746 001c 7047     		bx	lr
 747              	.L58:
 748 001e 00BF     		.align	2
 749              	.L57:
 750 0020 00200240 		.word	1073881088
 751 0024 23016745 		.word	1164378403
 752              		.cfi_endproc
 753              	.LFE72:
 755              		.section	.text.HAL_FLASH_OB_Lock,"ax",%progbits
 756              		.align	1
 757              		.global	HAL_FLASH_OB_Lock
 758              		.syntax unified
 759              		.thumb
 760              		.thumb_func
 762              	HAL_FLASH_OB_Lock:
 763              	.LFB73:
 733:Drivers/STM32F1xx_HAL_Driver/Src/stm32f1xx_hal_flash.c ****   /* Clear the OPTWRE Bit to lock the FLASH Option Byte Registers access */
 764              		.loc 1 733 1 is_stmt 1 view -0
 765              		.cfi_startproc
 766              		@ args = 0, pretend = 0, frame = 0
 767              		@ frame_needed = 0, uses_anonymous_args = 0
 768              		@ link register save eliminated.
ARM GAS  /tmp/ccj4n996.s 			page 34


 735:Drivers/STM32F1xx_HAL_Driver/Src/stm32f1xx_hal_flash.c ****   
 769              		.loc 1 735 3 view .LVU220
 770 0000 034A     		ldr	r2, .L60
 771 0002 1369     		ldr	r3, [r2, #16]
 772 0004 23F40073 		bic	r3, r3, #512
 773 0008 1361     		str	r3, [r2, #16]
 737:Drivers/STM32F1xx_HAL_Driver/Src/stm32f1xx_hal_flash.c **** }
 774              		.loc 1 737 3 view .LVU221
 738:Drivers/STM32F1xx_HAL_Driver/Src/stm32f1xx_hal_flash.c ****   
 775              		.loc 1 738 1 is_stmt 0 view .LVU222
 776 000a 0020     		movs	r0, #0
 777 000c 7047     		bx	lr
 778              	.L61:
 779 000e 00BF     		.align	2
 780              	.L60:
 781 0010 00200240 		.word	1073881088
 782              		.cfi_endproc
 783              	.LFE73:
 785              		.section	.text.HAL_FLASH_OB_Launch,"ax",%progbits
 786              		.align	1
 787              		.global	HAL_FLASH_OB_Launch
 788              		.syntax unified
 789              		.thumb
 790              		.thumb_func
 792              	HAL_FLASH_OB_Launch:
 793              	.LFB74:
 746:Drivers/STM32F1xx_HAL_Driver/Src/stm32f1xx_hal_flash.c ****   /* Initiates a system reset request to launch the option byte loading */
 794              		.loc 1 746 1 is_stmt 1 view -0
 795              		.cfi_startproc
 796              		@ args = 0, pretend = 0, frame = 0
 797              		@ frame_needed = 0, uses_anonymous_args = 0
 798 0000 08B5     		push	{r3, lr}
 799              	.LCFI2:
 800              		.cfi_def_cfa_offset 8
 801              		.cfi_offset 3, -8
 802              		.cfi_offset 14, -4
 748:Drivers/STM32F1xx_HAL_Driver/Src/stm32f1xx_hal_flash.c **** }
 803              		.loc 1 748 3 view .LVU224
 804 0002 FFF7FEFF 		bl	HAL_NVIC_SystemReset
 805              	.LVL39:
 749:Drivers/STM32F1xx_HAL_Driver/Src/stm32f1xx_hal_flash.c **** 
 806              		.loc 1 749 1 is_stmt 0 view .LVU225
 807 0006 08BD     		pop	{r3, pc}
 808              		.cfi_endproc
 809              	.LFE74:
 811              		.section	.text.HAL_FLASH_GetError,"ax",%progbits
 812              		.align	1
 813              		.global	HAL_FLASH_GetError
 814              		.syntax unified
 815              		.thumb
 816              		.thumb_func
 818              	HAL_FLASH_GetError:
 819              	.LFB75:
 775:Drivers/STM32F1xx_HAL_Driver/Src/stm32f1xx_hal_flash.c ****    return pFlash.ErrorCode;
 820              		.loc 1 775 1 is_stmt 1 view -0
 821              		.cfi_startproc
 822              		@ args = 0, pretend = 0, frame = 0
ARM GAS  /tmp/ccj4n996.s 			page 35


 823              		@ frame_needed = 0, uses_anonymous_args = 0
 824              		@ link register save eliminated.
 776:Drivers/STM32F1xx_HAL_Driver/Src/stm32f1xx_hal_flash.c **** }
 825              		.loc 1 776 4 view .LVU227
 776:Drivers/STM32F1xx_HAL_Driver/Src/stm32f1xx_hal_flash.c **** }
 826              		.loc 1 776 17 is_stmt 0 view .LVU228
 827 0000 014B     		ldr	r3, .L65
 828 0002 D869     		ldr	r0, [r3, #28]
 777:Drivers/STM32F1xx_HAL_Driver/Src/stm32f1xx_hal_flash.c **** 
 829              		.loc 1 777 1 view .LVU229
 830 0004 7047     		bx	lr
 831              	.L66:
 832 0006 00BF     		.align	2
 833              	.L65:
 834 0008 00000000 		.word	pFlash
 835              		.cfi_endproc
 836              	.LFE75:
 838              		.section	.text.FLASH_WaitForLastOperation,"ax",%progbits
 839              		.align	1
 840              		.global	FLASH_WaitForLastOperation
 841              		.syntax unified
 842              		.thumb
 843              		.thumb_func
 845              	FLASH_WaitForLastOperation:
 846              	.LVL40:
 847              	.LFB77:
 827:Drivers/STM32F1xx_HAL_Driver/Src/stm32f1xx_hal_flash.c ****   /* Wait for the FLASH operation to complete by polling on BUSY flag to be reset.
 848              		.loc 1 827 1 is_stmt 1 view -0
 849              		.cfi_startproc
 850              		@ args = 0, pretend = 0, frame = 0
 851              		@ frame_needed = 0, uses_anonymous_args = 0
 827:Drivers/STM32F1xx_HAL_Driver/Src/stm32f1xx_hal_flash.c ****   /* Wait for the FLASH operation to complete by polling on BUSY flag to be reset.
 852              		.loc 1 827 1 is_stmt 0 view .LVU231
 853 0000 38B5     		push	{r3, r4, r5, lr}
 854              	.LCFI3:
 855              		.cfi_def_cfa_offset 16
 856              		.cfi_offset 3, -16
 857              		.cfi_offset 4, -12
 858              		.cfi_offset 5, -8
 859              		.cfi_offset 14, -4
 860 0002 0446     		mov	r4, r0
 832:Drivers/STM32F1xx_HAL_Driver/Src/stm32f1xx_hal_flash.c ****      
 861              		.loc 1 832 3 is_stmt 1 view .LVU232
 832:Drivers/STM32F1xx_HAL_Driver/Src/stm32f1xx_hal_flash.c ****      
 862              		.loc 1 832 24 is_stmt 0 view .LVU233
 863 0004 FFF7FEFF 		bl	HAL_GetTick
 864              	.LVL41:
 832:Drivers/STM32F1xx_HAL_Driver/Src/stm32f1xx_hal_flash.c ****      
 865              		.loc 1 832 24 view .LVU234
 866 0008 0546     		mov	r5, r0
 867              	.LVL42:
 834:Drivers/STM32F1xx_HAL_Driver/Src/stm32f1xx_hal_flash.c ****   { 
 868              		.loc 1 834 3 is_stmt 1 view .LVU235
 869              	.L69:
 834:Drivers/STM32F1xx_HAL_Driver/Src/stm32f1xx_hal_flash.c ****   { 
 870              		.loc 1 834 9 view .LVU236
 871 000a 164B     		ldr	r3, .L78
ARM GAS  /tmp/ccj4n996.s 			page 36


 872 000c DB68     		ldr	r3, [r3, #12]
 873 000e 13F0010F 		tst	r3, #1
 874 0012 0AD0     		beq	.L77
 836:Drivers/STM32F1xx_HAL_Driver/Src/stm32f1xx_hal_flash.c ****     {
 875              		.loc 1 836 5 view .LVU237
 836:Drivers/STM32F1xx_HAL_Driver/Src/stm32f1xx_hal_flash.c ****     {
 876              		.loc 1 836 8 is_stmt 0 view .LVU238
 877 0014 B4F1FF3F 		cmp	r4, #-1
 878 0018 F7D0     		beq	.L69
 838:Drivers/STM32F1xx_HAL_Driver/Src/stm32f1xx_hal_flash.c ****       {
 879              		.loc 1 838 7 is_stmt 1 view .LVU239
 838:Drivers/STM32F1xx_HAL_Driver/Src/stm32f1xx_hal_flash.c ****       {
 880              		.loc 1 838 9 is_stmt 0 view .LVU240
 881 001a 24B1     		cbz	r4, .L70
 838:Drivers/STM32F1xx_HAL_Driver/Src/stm32f1xx_hal_flash.c ****       {
 882              		.loc 1 838 31 discriminator 1 view .LVU241
 883 001c FFF7FEFF 		bl	HAL_GetTick
 884              	.LVL43:
 838:Drivers/STM32F1xx_HAL_Driver/Src/stm32f1xx_hal_flash.c ****       {
 885              		.loc 1 838 44 discriminator 2 view .LVU242
 886 0020 401B     		subs	r0, r0, r5
 838:Drivers/STM32F1xx_HAL_Driver/Src/stm32f1xx_hal_flash.c ****       {
 887              		.loc 1 838 26 discriminator 2 view .LVU243
 888 0022 A042     		cmp	r0, r4
 889 0024 F1D9     		bls	.L69
 890              	.L70:
 840:Drivers/STM32F1xx_HAL_Driver/Src/stm32f1xx_hal_flash.c ****       }
 891              		.loc 1 840 9 is_stmt 1 view .LVU244
 840:Drivers/STM32F1xx_HAL_Driver/Src/stm32f1xx_hal_flash.c ****       }
 892              		.loc 1 840 16 is_stmt 0 view .LVU245
 893 0026 0320     		movs	r0, #3
 894 0028 1BE0     		b	.L71
 895              	.L77:
 846:Drivers/STM32F1xx_HAL_Driver/Src/stm32f1xx_hal_flash.c ****   {
 896              		.loc 1 846 3 is_stmt 1 view .LVU246
 846:Drivers/STM32F1xx_HAL_Driver/Src/stm32f1xx_hal_flash.c ****   {
 897              		.loc 1 846 7 is_stmt 0 view .LVU247
 898 002a 0E4B     		ldr	r3, .L78
 899 002c DB68     		ldr	r3, [r3, #12]
 846:Drivers/STM32F1xx_HAL_Driver/Src/stm32f1xx_hal_flash.c ****   {
 900              		.loc 1 846 6 view .LVU248
 901 002e 13F0200F 		tst	r3, #32
 902 0032 02D0     		beq	.L73
 849:Drivers/STM32F1xx_HAL_Driver/Src/stm32f1xx_hal_flash.c ****   }
 903              		.loc 1 849 5 is_stmt 1 view .LVU249
 849:Drivers/STM32F1xx_HAL_Driver/Src/stm32f1xx_hal_flash.c ****   }
 904              		.loc 1 849 5 view .LVU250
 849:Drivers/STM32F1xx_HAL_Driver/Src/stm32f1xx_hal_flash.c ****   }
 905              		.loc 1 849 5 discriminator 2 view .LVU251
 906 0034 0B4B     		ldr	r3, .L78
 907 0036 2022     		movs	r2, #32
 908 0038 DA60     		str	r2, [r3, #12]
 909              	.L73:
 849:Drivers/STM32F1xx_HAL_Driver/Src/stm32f1xx_hal_flash.c ****   }
 910              		.loc 1 849 5 view .LVU252
 852:Drivers/STM32F1xx_HAL_Driver/Src/stm32f1xx_hal_flash.c ****      __HAL_FLASH_GET_FLAG(FLASH_FLAG_OPTVERR) || 
 911              		.loc 1 852 3 view .LVU253
ARM GAS  /tmp/ccj4n996.s 			page 37


 852:Drivers/STM32F1xx_HAL_Driver/Src/stm32f1xx_hal_flash.c ****      __HAL_FLASH_GET_FLAG(FLASH_FLAG_OPTVERR) || 
 912              		.loc 1 852 6 is_stmt 0 view .LVU254
 913 003a 0A4B     		ldr	r3, .L78
 914 003c DB68     		ldr	r3, [r3, #12]
 852:Drivers/STM32F1xx_HAL_Driver/Src/stm32f1xx_hal_flash.c ****      __HAL_FLASH_GET_FLAG(FLASH_FLAG_OPTVERR) || 
 915              		.loc 1 852 5 view .LVU255
 916 003e 13F0100F 		tst	r3, #16
 917 0042 0BD1     		bne	.L74
 853:Drivers/STM32F1xx_HAL_Driver/Src/stm32f1xx_hal_flash.c ****      __HAL_FLASH_GET_FLAG(FLASH_FLAG_PGERR))
 918              		.loc 1 853 6 view .LVU256
 919 0044 074B     		ldr	r3, .L78
 920 0046 DB69     		ldr	r3, [r3, #28]
 852:Drivers/STM32F1xx_HAL_Driver/Src/stm32f1xx_hal_flash.c ****      __HAL_FLASH_GET_FLAG(FLASH_FLAG_OPTVERR) || 
 921              		.loc 1 852 47 discriminator 1 view .LVU257
 922 0048 13F0010F 		tst	r3, #1
 923 004c 06D1     		bne	.L74
 854:Drivers/STM32F1xx_HAL_Driver/Src/stm32f1xx_hal_flash.c ****   {
 924              		.loc 1 854 6 view .LVU258
 925 004e 054B     		ldr	r3, .L78
 926 0050 DB68     		ldr	r3, [r3, #12]
 853:Drivers/STM32F1xx_HAL_Driver/Src/stm32f1xx_hal_flash.c ****      __HAL_FLASH_GET_FLAG(FLASH_FLAG_PGERR))
 927              		.loc 1 853 47 view .LVU259
 928 0052 13F0040F 		tst	r3, #4
 929 0056 01D1     		bne	.L74
 862:Drivers/STM32F1xx_HAL_Driver/Src/stm32f1xx_hal_flash.c **** }
 930              		.loc 1 862 10 view .LVU260
 931 0058 0020     		movs	r0, #0
 932 005a 02E0     		b	.L71
 933              	.L74:
 857:Drivers/STM32F1xx_HAL_Driver/Src/stm32f1xx_hal_flash.c ****     return HAL_ERROR;
 934              		.loc 1 857 5 is_stmt 1 view .LVU261
 935 005c FFF7FEFF 		bl	FLASH_SetErrorCode
 936              	.LVL44:
 858:Drivers/STM32F1xx_HAL_Driver/Src/stm32f1xx_hal_flash.c ****   }
 937              		.loc 1 858 5 view .LVU262
 858:Drivers/STM32F1xx_HAL_Driver/Src/stm32f1xx_hal_flash.c ****   }
 938              		.loc 1 858 12 is_stmt 0 view .LVU263
 939 0060 0120     		movs	r0, #1
 940              	.L71:
 863:Drivers/STM32F1xx_HAL_Driver/Src/stm32f1xx_hal_flash.c **** 
 941              		.loc 1 863 1 view .LVU264
 942 0062 38BD     		pop	{r3, r4, r5, pc}
 943              	.LVL45:
 944              	.L79:
 863:Drivers/STM32F1xx_HAL_Driver/Src/stm32f1xx_hal_flash.c **** 
 945              		.loc 1 863 1 view .LVU265
 946              		.align	2
 947              	.L78:
 948 0064 00200240 		.word	1073881088
 949              		.cfi_endproc
 950              	.LFE77:
 952              		.section	.text.HAL_FLASH_Program,"ax",%progbits
 953              		.align	1
 954              		.global	HAL_FLASH_Program
 955              		.syntax unified
 956              		.thumb
 957              		.thumb_func
ARM GAS  /tmp/ccj4n996.s 			page 38


 959              	HAL_FLASH_Program:
 960              	.LVL46:
 961              	.LFB65:
 169:Drivers/STM32F1xx_HAL_Driver/Src/stm32f1xx_hal_flash.c ****   HAL_StatusTypeDef status = HAL_ERROR;
 962              		.loc 1 169 1 is_stmt 1 view -0
 963              		.cfi_startproc
 964              		@ args = 0, pretend = 0, frame = 0
 965              		@ frame_needed = 0, uses_anonymous_args = 0
 169:Drivers/STM32F1xx_HAL_Driver/Src/stm32f1xx_hal_flash.c ****   HAL_StatusTypeDef status = HAL_ERROR;
 966              		.loc 1 169 1 is_stmt 0 view .LVU267
 967 0000 2DE9F041 		push	{r4, r5, r6, r7, r8, lr}
 968              	.LCFI4:
 969              		.cfi_def_cfa_offset 24
 970              		.cfi_offset 4, -24
 971              		.cfi_offset 5, -20
 972              		.cfi_offset 6, -16
 973              		.cfi_offset 7, -12
 974              		.cfi_offset 8, -8
 975              		.cfi_offset 14, -4
 976 0004 1D46     		mov	r5, r3
 170:Drivers/STM32F1xx_HAL_Driver/Src/stm32f1xx_hal_flash.c ****   uint8_t index = 0;
 977              		.loc 1 170 3 is_stmt 1 view .LVU268
 978              	.LVL47:
 171:Drivers/STM32F1xx_HAL_Driver/Src/stm32f1xx_hal_flash.c ****   uint8_t nbiterations = 0;
 979              		.loc 1 171 3 view .LVU269
 172:Drivers/STM32F1xx_HAL_Driver/Src/stm32f1xx_hal_flash.c ****   
 980              		.loc 1 172 3 view .LVU270
 175:Drivers/STM32F1xx_HAL_Driver/Src/stm32f1xx_hal_flash.c **** 
 981              		.loc 1 175 3 view .LVU271
 175:Drivers/STM32F1xx_HAL_Driver/Src/stm32f1xx_hal_flash.c **** 
 982              		.loc 1 175 3 view .LVU272
 983 0006 244B     		ldr	r3, .L92
 984 0008 1B7E     		ldrb	r3, [r3, #24]	@ zero_extendqisi2
 985 000a 012B     		cmp	r3, #1
 986 000c 41D0     		beq	.L86
 987 000e 0446     		mov	r4, r0
 988 0010 0E46     		mov	r6, r1
 989 0012 1746     		mov	r7, r2
 175:Drivers/STM32F1xx_HAL_Driver/Src/stm32f1xx_hal_flash.c **** 
 990              		.loc 1 175 3 discriminator 2 view .LVU273
 991 0014 204B     		ldr	r3, .L92
 992 0016 0122     		movs	r2, #1
 993              	.LVL48:
 175:Drivers/STM32F1xx_HAL_Driver/Src/stm32f1xx_hal_flash.c **** 
 994              		.loc 1 175 3 is_stmt 0 discriminator 2 view .LVU274
 995 0018 1A76     		strb	r2, [r3, #24]
 175:Drivers/STM32F1xx_HAL_Driver/Src/stm32f1xx_hal_flash.c **** 
 996              		.loc 1 175 3 is_stmt 1 view .LVU275
 178:Drivers/STM32F1xx_HAL_Driver/Src/stm32f1xx_hal_flash.c ****   assert_param(IS_FLASH_PROGRAM_ADDRESS(Address));
 997              		.loc 1 178 3 view .LVU276
 179:Drivers/STM32F1xx_HAL_Driver/Src/stm32f1xx_hal_flash.c **** 
 998              		.loc 1 179 3 view .LVU277
 186:Drivers/STM32F1xx_HAL_Driver/Src/stm32f1xx_hal_flash.c **** #if defined(FLASH_BANK2_END)
 999              		.loc 1 186 5 view .LVU278
 186:Drivers/STM32F1xx_HAL_Driver/Src/stm32f1xx_hal_flash.c **** #if defined(FLASH_BANK2_END)
 1000              		.loc 1 186 14 is_stmt 0 view .LVU279
 1001 001a 4CF25030 		movw	r0, #50000
ARM GAS  /tmp/ccj4n996.s 			page 39


 1002              	.LVL49:
 186:Drivers/STM32F1xx_HAL_Driver/Src/stm32f1xx_hal_flash.c **** #if defined(FLASH_BANK2_END)
 1003              		.loc 1 186 14 view .LVU280
 1004 001e FFF7FEFF 		bl	FLASH_WaitForLastOperation
 1005              	.LVL50:
 196:Drivers/STM32F1xx_HAL_Driver/Src/stm32f1xx_hal_flash.c ****   {
 1006              		.loc 1 196 3 is_stmt 1 view .LVU281
 196:Drivers/STM32F1xx_HAL_Driver/Src/stm32f1xx_hal_flash.c ****   {
 1007              		.loc 1 196 5 is_stmt 0 view .LVU282
 1008 0022 0346     		mov	r3, r0
 1009 0024 78BB     		cbnz	r0, .L82
 198:Drivers/STM32F1xx_HAL_Driver/Src/stm32f1xx_hal_flash.c ****     {
 1010              		.loc 1 198 5 is_stmt 1 view .LVU283
 198:Drivers/STM32F1xx_HAL_Driver/Src/stm32f1xx_hal_flash.c ****     {
 1011              		.loc 1 198 7 is_stmt 0 view .LVU284
 1012 0026 012C     		cmp	r4, #1
 1013 0028 08D0     		beq	.L87
 203:Drivers/STM32F1xx_HAL_Driver/Src/stm32f1xx_hal_flash.c ****     {
 1014              		.loc 1 203 10 is_stmt 1 view .LVU285
 203:Drivers/STM32F1xx_HAL_Driver/Src/stm32f1xx_hal_flash.c ****     {
 1015              		.loc 1 203 12 is_stmt 0 view .LVU286
 1016 002a 022C     		cmp	r4, #2
 1017 002c 03D0     		beq	.L90
 211:Drivers/STM32F1xx_HAL_Driver/Src/stm32f1xx_hal_flash.c ****     }
 1018              		.loc 1 211 20 view .LVU287
 1019 002e 4FF00408 		mov	r8, #4
 1020              	.L83:
 1021              	.LVL51:
 214:Drivers/STM32F1xx_HAL_Driver/Src/stm32f1xx_hal_flash.c ****     {
 1022              		.loc 1 214 5 is_stmt 1 view .LVU288
 214:Drivers/STM32F1xx_HAL_Driver/Src/stm32f1xx_hal_flash.c ****     {
 1023              		.loc 1 214 16 is_stmt 0 view .LVU289
 1024 0032 1C46     		mov	r4, r3
 1025              	.LVL52:
 214:Drivers/STM32F1xx_HAL_Driver/Src/stm32f1xx_hal_flash.c ****     {
 1026              		.loc 1 214 5 view .LVU290
 1027 0034 07E0     		b	.L84
 1028              	.LVL53:
 1029              	.L90:
 206:Drivers/STM32F1xx_HAL_Driver/Src/stm32f1xx_hal_flash.c ****     }
 1030              		.loc 1 206 20 view .LVU291
 1031 0036 4FF00208 		mov	r8, #2
 1032 003a FAE7     		b	.L83
 1033              	.L87:
 201:Drivers/STM32F1xx_HAL_Driver/Src/stm32f1xx_hal_flash.c ****     }
 1034              		.loc 1 201 20 view .LVU292
 1035 003c 4FF00108 		mov	r8, #1
 1036 0040 F7E7     		b	.L83
 1037              	.LVL54:
 1038              	.L91:
 214:Drivers/STM32F1xx_HAL_Driver/Src/stm32f1xx_hal_flash.c ****     {
 1039              		.loc 1 214 49 is_stmt 1 discriminator 2 view .LVU293
 1040 0042 0134     		adds	r4, r4, #1
 1041              	.LVL55:
 214:Drivers/STM32F1xx_HAL_Driver/Src/stm32f1xx_hal_flash.c ****     {
 1042              		.loc 1 214 49 is_stmt 0 discriminator 2 view .LVU294
 1043 0044 E4B2     		uxtb	r4, r4
ARM GAS  /tmp/ccj4n996.s 			page 40


 1044              	.LVL56:
 1045              	.L84:
 214:Drivers/STM32F1xx_HAL_Driver/Src/stm32f1xx_hal_flash.c ****     {
 1046              		.loc 1 214 28 is_stmt 1 discriminator 1 view .LVU295
 1047 0046 4445     		cmp	r4, r8
 1048 0048 1DD2     		bcs	.L82
 216:Drivers/STM32F1xx_HAL_Driver/Src/stm32f1xx_hal_flash.c **** 
 1049              		.loc 1 216 7 view .LVU296
 216:Drivers/STM32F1xx_HAL_Driver/Src/stm32f1xx_hal_flash.c **** 
 1050              		.loc 1 216 77 is_stmt 0 view .LVU297
 1051 004a 2101     		lsls	r1, r4, #4
 216:Drivers/STM32F1xx_HAL_Driver/Src/stm32f1xx_hal_flash.c **** 
 1052              		.loc 1 216 70 view .LVU298
 1053 004c C1F12002 		rsb	r2, r1, #32
 1054 0050 A1F12003 		sub	r3, r1, #32
 1055              	.LVL57:
 216:Drivers/STM32F1xx_HAL_Driver/Src/stm32f1xx_hal_flash.c **** 
 1056              		.loc 1 216 70 view .LVU299
 1057 0054 27FA01F1 		lsr	r1, r7, r1
 1058 0058 05FA02F2 		lsl	r2, r5, r2
 1059 005c 1143     		orrs	r1, r1, r2
 1060 005e 25FA03F3 		lsr	r3, r5, r3
 1061 0062 1943     		orrs	r1, r1, r3
 216:Drivers/STM32F1xx_HAL_Driver/Src/stm32f1xx_hal_flash.c **** 
 1062              		.loc 1 216 7 view .LVU300
 1063 0064 89B2     		uxth	r1, r1
 1064 0066 06EB4400 		add	r0, r6, r4, lsl #1
 1065 006a FFF7FEFF 		bl	FLASH_Program_HalfWord
 1066              	.LVL58:
 223:Drivers/STM32F1xx_HAL_Driver/Src/stm32f1xx_hal_flash.c ****     
 1067              		.loc 1 223 9 is_stmt 1 view .LVU301
 223:Drivers/STM32F1xx_HAL_Driver/Src/stm32f1xx_hal_flash.c ****     
 1068              		.loc 1 223 18 is_stmt 0 view .LVU302
 1069 006e 4CF25030 		movw	r0, #50000
 1070 0072 FFF7FEFF 		bl	FLASH_WaitForLastOperation
 1071              	.LVL59:
 226:Drivers/STM32F1xx_HAL_Driver/Src/stm32f1xx_hal_flash.c **** #if defined(FLASH_BANK2_END)
 1072              		.loc 1 226 9 is_stmt 1 view .LVU303
 1073 0076 094A     		ldr	r2, .L92+4
 1074 0078 1369     		ldr	r3, [r2, #16]
 1075 007a 23F00103 		bic	r3, r3, #1
 1076 007e 1361     		str	r3, [r2, #16]
 239:Drivers/STM32F1xx_HAL_Driver/Src/stm32f1xx_hal_flash.c ****       {
 1077              		.loc 1 239 7 view .LVU304
 239:Drivers/STM32F1xx_HAL_Driver/Src/stm32f1xx_hal_flash.c ****       {
 1078              		.loc 1 239 10 is_stmt 0 view .LVU305
 1079 0080 0346     		mov	r3, r0
 1080 0082 0028     		cmp	r0, #0
 1081 0084 DDD0     		beq	.L91
 1082              	.LVL60:
 1083              	.L82:
 247:Drivers/STM32F1xx_HAL_Driver/Src/stm32f1xx_hal_flash.c **** 
 1084              		.loc 1 247 3 is_stmt 1 view .LVU306
 247:Drivers/STM32F1xx_HAL_Driver/Src/stm32f1xx_hal_flash.c **** 
 1085              		.loc 1 247 3 view .LVU307
 1086 0086 044A     		ldr	r2, .L92
 1087 0088 0021     		movs	r1, #0
ARM GAS  /tmp/ccj4n996.s 			page 41


 1088 008a 1176     		strb	r1, [r2, #24]
 247:Drivers/STM32F1xx_HAL_Driver/Src/stm32f1xx_hal_flash.c **** 
 1089              		.loc 1 247 3 view .LVU308
 249:Drivers/STM32F1xx_HAL_Driver/Src/stm32f1xx_hal_flash.c **** }
 1090              		.loc 1 249 3 view .LVU309
 1091              	.LVL61:
 1092              	.L81:
 250:Drivers/STM32F1xx_HAL_Driver/Src/stm32f1xx_hal_flash.c **** 
 1093              		.loc 1 250 1 is_stmt 0 view .LVU310
 1094 008c 1846     		mov	r0, r3
 1095 008e BDE8F081 		pop	{r4, r5, r6, r7, r8, pc}
 1096              	.LVL62:
 1097              	.L86:
 175:Drivers/STM32F1xx_HAL_Driver/Src/stm32f1xx_hal_flash.c **** 
 1098              		.loc 1 175 3 discriminator 1 view .LVU311
 1099 0092 0223     		movs	r3, #2
 1100 0094 FAE7     		b	.L81
 1101              	.L93:
 1102 0096 00BF     		.align	2
 1103              	.L92:
 1104 0098 00000000 		.word	pFlash
 1105 009c 00200240 		.word	1073881088
 1106              		.cfi_endproc
 1107              	.LFE65:
 1109              		.global	pFlash
 1110              		.section	.bss.pFlash,"aw",%nobits
 1111              		.align	3
 1114              	pFlash:
 1115 0000 00000000 		.space	32
 1115      00000000 
 1115      00000000 
 1115      00000000 
 1115      00000000 
 1116              		.text
 1117              	.Letext0:
 1118              		.file 2 "/opt/arm-gnu-toolchain-15.2.rel1-x86_64-arm-none-eabi/arm-none-eabi/include/machine/_defa
 1119              		.file 3 "/opt/arm-gnu-toolchain-15.2.rel1-x86_64-arm-none-eabi/arm-none-eabi/include/sys/_stdint.h
 1120              		.file 4 "Drivers/CMSIS/Device/ST/STM32F1xx/Include/stm32f103xb.h"
 1121              		.file 5 "Drivers/CMSIS/Device/ST/STM32F1xx/Include/stm32f1xx.h"
 1122              		.file 6 "Drivers/STM32F1xx_HAL_Driver/Inc/stm32f1xx_hal_def.h"
 1123              		.file 7 "Drivers/STM32F1xx_HAL_Driver/Inc/stm32f1xx_hal_flash.h"
 1124              		.file 8 "Drivers/STM32F1xx_HAL_Driver/Inc/stm32f1xx_hal.h"
 1125              		.file 9 "Drivers/STM32F1xx_HAL_Driver/Inc/stm32f1xx_hal_cortex.h"
ARM GAS  /tmp/ccj4n996.s 			page 42

